Certificate:
    Data:
        Version: 3 (0x2)
        Serial Number:
            30:db:a4:6b:90:98:f9:c6:c3:2d:14:2f:b5:f6:d4:b8:88:e0:b8:c2
        Signature Algorithm: sha1WithRSAEncryption
        Issuer: C=AU, O=Dodgy Brothers, CN=Dodgy CA
        Validity
            Not Before: Mar 18 15:52:23 2024 GMT
            Not After : Mar 18 15:52:23 2025 GMT
        Subject: C=AU, O=Dodgy Brothers, CN=Brother 1, CN=nextupdate_utctime
        Subject Public Key Info:
            Public Key Algorithm: rsaEncryption
                Public-Key: (2048 bit)
                Modulus:
                    00:be:95:86:fa:71:4c:6a:ea:51:98:50:4b:99:a1:
                    2c:66:15:f3:60:f3:e1:ff:69:fb:ce:48:01:1d:fe:
                    e1:2c:38:b0:e3:bd:8f:4b:48:a7:7e:3a:c6:73:e3:
                    ab:bf:e1:da:6e:96:f5:fe:c3:e4:b4:a8:ad:bc:56:
                    34:d4:96:25:74:27:c3:10:db:35:10:25:1c:8e:4b:
                    81:9b:fb:42:04:7c:6f:3d:e2:38:6c:0e:e4:2e:8e:
                    2a:18:6d:30:cd:67:2a:23:6b:37:cf:05:9f:cc:b7:
                    59:58:7f:ba:c4:0a:3f:8c:a4:ad:cb:98:9c:c0:f2:
                    8f:69:67:0f:c1:4e:33:cf:fc:85:5e:bb:5e:cf:93:
                    b0:cf:d9:f4:52:79:87:b1:f8:4d:15:68:65:d5:b7:
                    19:08:63:7f:5e:b1:34:ad:05:8f:5a:f0:e4:e1:8f:
                    25:f2:5c:5c:61:95:b0:56:2d:31:2b:08:65:79:e5:
                    b1:3b:9d:3e:b9:52:4b:ac:5d:c4:58:66:85:8d:81:
                    b3:04:28:f4:3f:2f:ac:92:01:62:d5:fd:8e:0b:da:
                    02:0c:7a:c7:6e:09:1c:ac:1c:b2:4c:d7:54:b8:26:
                    33:b2:5f:14:f3:b1:f9:3d:62:4d:40:99:6b:b6:e7:
                    89:58:97:d6:d4:4d:ea:4b:68:52:f3:3c:a8:b1:35:
                    88:db
                Exponent: 65537 (0x10001)
        X509v3 extensions:
            X509v3 Subject Key Identifier: 
                A1:DF:33:C3:CF:3E:53:41:A7:68:44:CC:AA:19:E1:84:C9:0D:BC:C6
            X509v3 Authority Key Identifier: 
                keyid:B4:11:33:F1:D7:E2:5E:F7:53:9E:20:22:10:4F:86:06:BF:1F:C9:5E
                DirName:/C=AU/O=Dodgy Brothers/CN=Dodgy CA
                serial:26:4C:9F:2D:64:71:C5:7F:87:47:A5:3E:B2:32:B3:4B:6D:09:86:BD
            X509v3 Basic Constraints: critical
                CA:TRUE, pathlen:1
            X509v3 Key Usage: 
                Certificate Sign, CRL Sign
            X509v3 Issuer Alternative Name: 
                <EMPTY>

    Signature Algorithm: sha1WithRSAEncryption
    Signature Value:
        00:22:7d:a7:99:76:5e:15:26:93:8a:29:f0:15:8e:ab:f4:9b:
        95:f4:b1:9a:c2:52:01:8d:17:9f:bf:9c:46:27:c4:1e:97:36:
        7e:0f:f8:d1:41:c8:6a:ba:78:d4:24:0c:fe:c7:68:b4:75:e3:
        8d:08:62:ba:dd:f4:a9:8c:60:53:51:46:30:67:15:7f:49:06:
        d7:91:ed:16:f5:84:e4:01:f6:57:c0:93:72:d9:26:3a:bd:bd:
        d4:58:8b:f6:3a:b5:d0:a5:81:6a:b4:0f:f0:37:15:2e:85:b0:
        44:6a:02:5a:7b:c9:fb:25:12:aa:6e:aa:2f:93:6e:b6:73:37:
        8b:63:3d:05:f0:08:da:c4:f1:c7:b8:95:84:44:b1:ae:9e:d6:
        e2:0d:d5:c6:52:01:13:1b:56:dc:79:d2:42:fa:35:e6:44:35:
        8b:ee:76:74:ee:0e:a8:bb:a7:09:31:b7:30:38:fa:2e:13:d8:
        1f:54:5f:d6:a3:92:e0:27:5e:89:90:18:33:39:89:cf:64:dd:
        59:3e:52:d9:b1:01:c9:81:7a:47:f5:b8:93:30:cc:8f:13:2f:
        eb:6d:e8:77:62:13:29:80:2f:24:fd:2a:cc:af:88:26:5b:3a:
        88:a1:0e:d5:90:f3:00:e0:4d:a3:64:25:71:91:3e:90:95:3f:
        e8:51:8b:3f
-----BEGIN CERTIFICATE-----
MIID4zCCAsugAwIBAgIUMNuka5CY+cbDLRQvtfbUuIjguMIwDQYJKoZIhvcNAQEF
BQAwOTELMAkGA1UEBhMCQVUxFzAVBgNVBAoMDkRvZGd5IEJyb3RoZXJzMREwDwYD
VQQDDAhEb2RneSBDQTAeFw0yNDAzMTgxNTUyMjNaFw0yNTAzMTgxNTUyMjNaMFcx
CzAJBgNVBAYTAkFVMRcwFQYDVQQKDA5Eb2RneSBCcm90aGVyczESMBAGA1UEAwwJ
QnJvdGhlciAxMRswGQYDVQQDDBJuZXh0dXBkYXRlX3V0Y3RpbWUwggEiMA0GCSqG
SIb3DQEBAQUAA4IBDwAwggEKAoIBAQC+lYb6cUxq6lGYUEuZoSxmFfNg8+H/afvO
SAEd/uEsOLDjvY9LSKd+OsZz46u/4dpulvX+w+S0qK28VjTUliV0J8MQ2zUQJRyO
S4Gb+0IEfG894jhsDuQujioYbTDNZyojazfPBZ/Mt1lYf7rECj+MpK3LmJzA8o9p
Zw/BTjPP/IVeu17Pk7DP2fRSeYex+E0VaGXVtxkIY39esTStBY9a8OThjyXyXFxh
lbBWLTErCGV55bE7nT65UkusXcRYZoWNgbMEKPQ/L6ySAWLV/Y4L2gIMesduCRys
HLJM11S4JjOyXxTzsfk9Yk1AmWu254lYl9bUTepLaFLzPKixNYjbAgMBAAGjgcQw
gcEwHQYDVR0OBBYEFKHfM8PPPlNBp2hEzKoZ4YTJDbzGMHQGA1UdIwRtMGuAFLQR
M/HX4l73U54gIhBPhga/H8leoT2kOzA5MQswCQYDVQQGEwJBVTEXMBUGA1UECgwO
RG9kZ3kgQnJvdGhlcnMxETAPBgNVBAMMCERvZGd5IENBghQmTJ8tZHHFf4dHpT6y
MrNLbQmGvTASBgNVHRMBAf8ECDAGAQH/AgEBMAsGA1UdDwQEAwIBBjAJBgNVHRIE
AjAAMA0GCSqGSIb3DQEBBQUAA4IBAQAAIn2nmXZeFSaTiinwFY6r9JuV9LGawlIB
jRefv5xGJ8QelzZ+D/jRQchqunjUJAz+x2i0deONCGK63fSpjGBTUUYwZxV/SQbX
ke0W9YTkAfZXwJNy2SY6vb3UWIv2OrXQpYFqtA/wNxUuhbBEagJae8n7JRKqbqov
k262czeLYz0F8AjaxPHHuJWERLGuntbiDdXGUgETG1bcedJC+jXmRDWL7nZ07g6o
u6cJMbcwOPouE9gfVF/Wo5LgJ16JkBgzOYnPZN1ZPlLZsQHJgXpH9biTMMyPEy/r
beh3YhMpgC8k/SrMr4gmWzqIoQ7VkPMA4E2jZCVxkT6QlT/oUYs/
-----END CERTIFICATE-----
