Certificate:
    Data:
        Version: 3 (0x2)
        Serial Number:
            30:db:a4:6b:90:98:f9:c6:c3:2d:14:2f:b5:f6:d4:b8:88:e0:b8:be
        Signature Algorithm: sha1WithRSAEncryption
        Issuer: C=AU, O=Dodgy Brothers, CN=Dodgy CA
        Validity
            Not Before: Mar 18 15:52:22 2024 GMT
            Not After : Mar 18 15:52:22 2025 GMT
        Subject: C=AU, O=Dodgy Brothers, CN=Brother 1, CN=lastupdate_invalid
        Subject Public Key Info:
            Public Key Algorithm: rsaEncryption
                Public-Key: (2048 bit)
                Modulus:
                    00:be:95:86:fa:71:4c:6a:ea:51:98:50:4b:99:a1:
                    2c:66:15:f3:60:f3:e1:ff:69:fb:ce:48:01:1d:fe:
                    e1:2c:38:b0:e3:bd:8f:4b:48:a7:7e:3a:c6:73:e3:
                    ab:bf:e1:da:6e:96:f5:fe:c3:e4:b4:a8:ad:bc:56:
                    34:d4:96:25:74:27:c3:10:db:35:10:25:1c:8e:4b:
                    81:9b:fb:42:04:7c:6f:3d:e2:38:6c:0e:e4:2e:8e:
                    2a:18:6d:30:cd:67:2a:23:6b:37:cf:05:9f:cc:b7:
                    59:58:7f:ba:c4:0a:3f:8c:a4:ad:cb:98:9c:c0:f2:
                    8f:69:67:0f:c1:4e:33:cf:fc:85:5e:bb:5e:cf:93:
                    b0:cf:d9:f4:52:79:87:b1:f8:4d:15:68:65:d5:b7:
                    19:08:63:7f:5e:b1:34:ad:05:8f:5a:f0:e4:e1:8f:
                    25:f2:5c:5c:61:95:b0:56:2d:31:2b:08:65:79:e5:
                    b1:3b:9d:3e:b9:52:4b:ac:5d:c4:58:66:85:8d:81:
                    b3:04:28:f4:3f:2f:ac:92:01:62:d5:fd:8e:0b:da:
                    02:0c:7a:c7:6e:09:1c:ac:1c:b2:4c:d7:54:b8:26:
                    33:b2:5f:14:f3:b1:f9:3d:62:4d:40:99:6b:b6:e7:
                    89:58:97:d6:d4:4d:ea:4b:68:52:f3:3c:a8:b1:35:
                    88:db
                Exponent: 65537 (0x10001)
        X509v3 extensions:
            X509v3 Subject Key Identifier: 
                A1:DF:33:C3:CF:3E:53:41:A7:68:44:CC:AA:19:E1:84:C9:0D:BC:C6
            X509v3 Authority Key Identifier: 
                keyid:B4:11:33:F1:D7:E2:5E:F7:53:9E:20:22:10:4F:86:06:BF:1F:C9:5E
                DirName:/C=AU/O=Dodgy Brothers/CN=Dodgy CA
                serial:26:4C:9F:2D:64:71:C5:7F:87:47:A5:3E:B2:32:B3:4B:6D:09:86:BD
            X509v3 Basic Constraints: critical
                CA:TRUE, pathlen:1
            X509v3 Key Usage: 
                Certificate Sign, CRL Sign
            X509v3 Issuer Alternative Name: 
                <EMPTY>

    Signature Algorithm: sha1WithRSAEncryption
    Signature Value:
        79:b7:fa:3a:3c:7e:1b:12:cc:40:61:11:98:e1:34:eb:1f:36:
        f8:22:95:87:5e:c0:1d:96:2b:82:fb:29:ac:ca:d7:8b:65:50:
        3b:3d:02:31:00:22:a6:77:81:2f:12:73:70:32:7a:9c:f2:2b:
        ea:36:47:2b:47:fa:c5:76:46:3d:b5:74:3c:fd:39:b0:6c:28:
        f8:30:11:2f:6e:c5:14:e1:cb:cf:2b:47:d3:17:af:ea:50:66:
        02:02:00:7a:89:30:ab:dc:56:a9:22:a6:ae:ba:3b:38:c2:47:
        99:18:1c:29:46:46:4d:96:1e:90:bb:67:f7:05:68:9f:90:dc:
        f1:44:36:aa:0e:ee:23:e5:16:ca:05:3e:72:18:f5:7b:09:4e:
        51:4a:f5:e6:69:a5:62:91:9b:63:c4:10:ba:e0:5a:98:11:be:
        f9:45:c8:d5:d8:ea:e5:ad:04:51:48:90:47:cb:cb:94:c1:e7:
        65:ec:34:60:58:bd:ba:ad:a9:3f:ad:ed:d2:2c:d0:5f:3e:f6:
        44:18:8d:6a:07:1e:11:7d:08:d5:c6:05:7b:37:25:9d:40:23:
        4c:e5:ec:d5:32:f3:a5:9a:1d:2d:c9:80:9d:f2:0c:4f:c8:d4:
        52:4c:87:67:44:8e:b6:dd:71:37:ff:63:e5:59:d5:2b:95:f9:
        b8:f2:e3:25
-----BEGIN CERTIFICATE-----
MIID4zCCAsugAwIBAgIUMNuka5CY+cbDLRQvtfbUuIjguL4wDQYJKoZIhvcNAQEF
BQAwOTELMAkGA1UEBhMCQVUxFzAVBgNVBAoMDkRvZGd5IEJyb3RoZXJzMREwDwYD
VQQDDAhEb2RneSBDQTAeFw0yNDAzMTgxNTUyMjJaFw0yNTAzMTgxNTUyMjJaMFcx
CzAJBgNVBAYTAkFVMRcwFQYDVQQKDA5Eb2RneSBCcm90aGVyczESMBAGA1UEAwwJ
QnJvdGhlciAxMRswGQYDVQQDDBJsYXN0dXBkYXRlX2ludmFsaWQwggEiMA0GCSqG
SIb3DQEBAQUAA4IBDwAwggEKAoIBAQC+lYb6cUxq6lGYUEuZoSxmFfNg8+H/afvO
SAEd/uEsOLDjvY9LSKd+OsZz46u/4dpulvX+w+S0qK28VjTUliV0J8MQ2zUQJRyO
S4Gb+0IEfG894jhsDuQujioYbTDNZyojazfPBZ/Mt1lYf7rECj+MpK3LmJzA8o9p
Zw/BTjPP/IVeu17Pk7DP2fRSeYex+E0VaGXVtxkIY39esTStBY9a8OThjyXyXFxh
lbBWLTErCGV55bE7nT65UkusXcRYZoWNgbMEKPQ/L6ySAWLV/Y4L2gIMesduCRys
HLJM11S4JjOyXxTzsfk9Yk1AmWu254lYl9bUTepLaFLzPKixNYjbAgMBAAGjgcQw
gcEwHQYDVR0OBBYEFKHfM8PPPlNBp2hEzKoZ4YTJDbzGMHQGA1UdIwRtMGuAFLQR
M/HX4l73U54gIhBPhga/H8leoT2kOzA5MQswCQYDVQQGEwJBVTEXMBUGA1UECgwO
RG9kZ3kgQnJvdGhlcnMxETAPBgNVBAMMCERvZGd5IENBghQmTJ8tZHHFf4dHpT6y
MrNLbQmGvTASBgNVHRMBAf8ECDAGAQH/AgEBMAsGA1UdDwQEAwIBBjAJBgNVHRIE
AjAAMA0GCSqGSIb3DQEBBQUAA4IBAQB5t/o6PH4bEsxAYRGY4TTrHzb4IpWHXsAd
liuC+ymsyteLZVA7PQIxACKmd4EvEnNwMnqc8ivqNkcrR/rFdkY9tXQ8/TmwbCj4
MBEvbsUU4cvPK0fTF6/qUGYCAgB6iTCr3FapIqauujs4wkeZGBwpRkZNlh6Qu2f3
BWifkNzxRDaqDu4j5RbKBT5yGPV7CU5RSvXmaaVikZtjxBC64FqYEb75RcjV2Orl
rQRRSJBHy8uUwedl7DRgWL26rak/re3SLNBfPvZEGI1qBx4RfQjVxgV7NyWdQCNM
5ezVMvOlmh0tyYCd8gxPyNRSTIdnRI623XE3/2PlWdUrlfm48uMl
-----END CERTIFICATE-----
