Certificate:
    Data:
        Version: 3 (0x2)
        Serial Number:
            30:db:a4:6b:90:98:f9:c6:c3:2d:14:2f:b5:f6:d4:b8:88:e0:b8:ba
        Signature Algorithm: sha256WithRSAEncryption
        Issuer: C=AU, O=Dodgy Brothers, CN=Dodgy CA
        Validity
            Not Before: Mar 18 15:52:22 2024 GMT
            Not After : Mar 18 15:52:22 2025 GMT
        Subject: C=AU, O=Dodgy Brothers, CN=Brother 1, CN=Brother 2
        Subject Public Key Info:
            Public Key Algorithm: rsaEncryption
                Public-Key: (2048 bit)
                Modulus:
                    00:a8:ff:89:58:61:85:ae:de:db:2c:0f:d5:73:fb:
                    e2:b7:a8:1b:7a:75:60:2b:d4:7d:3c:73:76:b5:ae:
                    de:93:2f:7f:24:90:6d:c9:1c:f4:8a:38:cd:9f:a2:
                    80:16:56:cb:b4:2c:bb:93:e5:17:1f:ff:0d:c6:43:
                    fe:31:34:f8:28:d8:75:e9:a3:bb:88:82:ef:a3:72:
                    e2:53:62:05:45:4d:e0:31:97:ef:aa:9d:10:d2:58:
                    0d:9e:06:9e:32:bb:1b:08:56:5d:65:0f:3f:66:8e:
                    c2:36:a0:11:ff:c0:59:35:fd:49:1c:dd:1c:42:33:
                    06:78:ae:04:38:23:e5:e7:75:67:d3:94:ad:5a:a9:
                    40:1f:ac:59:10:f5:0c:c1:64:ad:4a:c4:c6:35:53:
                    b3:96:6a:82:1b:15:8b:d1:99:ab:e4:9e:6f:94:aa:
                    d2:96:e5:57:fb:8c:91:64:8a:3c:24:16:c6:d2:19:
                    be:82:60:13:3b:62:b0:ed:3e:1d:b3:ca:f9:6b:df:
                    31:b9:7a:9e:4b:47:68:a7:29:c7:3f:4a:e2:22:27:
                    b4:ef:90:63:d7:ef:d0:72:49:3e:5b:ad:b9:1b:d4:
                    2b:6f:86:68:dd:d5:73:12:b8:43:c9:dc:41:0f:a2:
                    a3:46:4f:8b:67:88:84:0f:61:fe:79:34:1f:4a:89:
                    1f:b7
                Exponent: 65537 (0x10001)
        X509v3 extensions:
            X509v3 Basic Constraints: 
                CA:FALSE
            X509v3 Subject Key Identifier: 
                E7:9B:E2:2A:AD:8A:6C:3A:CB:76:51:E5:8E:07:98:22:97:E1:73:A2
            X509v3 Authority Key Identifier: 
                B4:11:33:F1:D7:E2:5E:F7:53:9E:20:22:10:4F:86:06:BF:1F:C9:5E
    Signature Algorithm: sha256WithRSAEncryption
    Signature Value:
        71:e7:c1:fd:7d:88:08:6e:38:97:73:88:f1:a2:8d:1d:e3:75:
        5f:44:d3:e7:9a:fb:7c:bb:d5:40:17:7a:1d:4c:3e:7c:ea:06:
        b6:0c:96:06:08:a5:b4:74:7d:11:b7:09:eb:19:4e:fd:15:4d:
        15:38:58:5d:6f:05:2e:d9:0e:79:c3:46:f1:12:ee:8e:fd:02:
        42:6f:9d:c8:67:cb:61:2a:7e:28:2f:fc:26:7e:20:3a:c5:df:
        4b:fd:48:54:cb:37:c1:fa:a0:68:13:e9:52:c8:4f:25:85:69:
        db:60:02:3e:f8:b4:47:bc:6e:22:b3:6d:b9:4d:58:74:ee:b7:
        a7:5a:fe:b3:4f:74:12:e2:bb:0f:30:a1:5d:f0:9b:9a:25:2c:
        aa:1e:44:9b:35:0d:34:95:81:cb:67:b3:85:82:93:dd:73:06:
        48:73:09:ec:de:32:a5:dd:d1:14:dc:1c:a7:e0:95:d0:d0:3f:
        0f:43:74:9e:b7:ed:4f:7a:61:72:6d:b9:30:5d:88:70:31:0a:
        c0:a4:f9:c2:89:a4:9a:2c:11:e3:84:94:44:53:f4:f6:70:c9:
        95:ae:3f:26:c1:d7:94:bd:d7:28:59:b4:d4:90:db:21:0b:54:
        44:c4:07:84:7f:33:2d:2a:1e:18:e2:3a:ca:b7:9a:38:df:94:
        15:53:24:f5
-----BEGIN CERTIFICATE-----
MIIDYjCCAkqgAwIBAgIUMNuka5CY+cbDLRQvtfbUuIjguLowDQYJKoZIhvcNAQEL
BQAwOTELMAkGA1UEBhMCQVUxFzAVBgNVBAoMDkRvZGd5IEJyb3RoZXJzMREwDwYD
VQQDDAhEb2RneSBDQTAeFw0yNDAzMTgxNTUyMjJaFw0yNTAzMTgxNTUyMjJaME4x
CzAJBgNVBAYTAkFVMRcwFQYDVQQKDA5Eb2RneSBCcm90aGVyczESMBAGA1UEAwwJ
QnJvdGhlciAxMRIwEAYDVQQDDAlCcm90aGVyIDIwggEiMA0GCSqGSIb3DQEBAQUA
A4IBDwAwggEKAoIBAQCo/4lYYYWu3tssD9Vz++K3qBt6dWAr1H08c3a1rt6TL38k
kG3JHPSKOM2fooAWVsu0LLuT5Rcf/w3GQ/4xNPgo2HXpo7uIgu+jcuJTYgVFTeAx
l++qnRDSWA2eBp4yuxsIVl1lDz9mjsI2oBH/wFk1/Ukc3RxCMwZ4rgQ4I+XndWfT
lK1aqUAfrFkQ9QzBZK1KxMY1U7OWaoIbFYvRmavknm+UqtKW5Vf7jJFkijwkFsbS
Gb6CYBM7YrDtPh2zyvlr3zG5ep5LR2inKcc/SuIiJ7TvkGPX79ByST5brbkb1Ctv
hmjd1XMSuEPJ3EEPoqNGT4tniIQPYf55NB9KiR+3AgMBAAGjTTBLMAkGA1UdEwQC
MAAwHQYDVR0OBBYEFOeb4iqtimw6y3ZR5Y4HmCKX4XOiMB8GA1UdIwQYMBaAFLQR
M/HX4l73U54gIhBPhga/H8leMA0GCSqGSIb3DQEBCwUAA4IBAQBx58H9fYgIbjiX
c4jxoo0d43VfRNPnmvt8u9VAF3odTD586ga2DJYGCKW0dH0RtwnrGU79FU0VOFhd
bwUu2Q55w0bxEu6O/QJCb53IZ8thKn4oL/wmfiA6xd9L/UhUyzfB+qBoE+lSyE8l
hWnbYAI++LRHvG4is225TVh07renWv6zT3QS4rsPMKFd8JuaJSyqHkSbNQ00lYHL
Z7OFgpPdcwZIcwns3jKl3dEU3Byn4JXQ0D8PQ3Set+1PemFybbkwXYhwMQrApPnC
iaSaLBHjhJREU/T2cMmVrj8mwdeUvdcoWbTUkNshC1RExAeEfzMtKh4Y4jrKt5o4
35QVUyT1
-----END CERTIFICATE-----
