Certificate:
    Data:
        Version: 3 (0x2)
        Serial Number:
            26:4c:9f:2d:64:71:c5:7f:87:47:a5:3e:b2:32:b3:4b:6d:09:86:bd
        Signature Algorithm: sha1WithRSAEncryption
        Issuer: C=AU, O=Dodgy Brothers, CN=Dodgy CA
        Validity
            Not Before: Mar 18 15:52:22 2024 GMT
            Not After : Mar 18 15:52:22 2027 GMT
        Subject: C=AU, O=Dodgy Brothers, CN=Dodgy CA
        Subject Public Key Info:
            Public Key Algorithm: rsaEncryption
                Public-Key: (2048 bit)
                Modulus:
                    00:96:9d:a4:3d:00:4b:1c:5f:c6:cb:dd:8f:d2:31:
                    b2:88:15:cc:c4:86:2c:5c:e2:69:8b:84:f4:a7:a3:
                    53:df:91:e3:bf:51:89:fb:f0:7c:10:0d:3b:ad:ac:
                    35:62:75:f5:7f:ff:f4:6e:54:8f:05:a6:92:23:b3:
                    9f:59:39:d0:39:18:b0:10:40:de:62:73:8a:4e:b0:
                    8e:df:dc:e7:c9:41:22:54:84:80:08:29:bc:35:3c:
                    86:df:30:de:dd:b4:24:ff:7e:62:a5:c0:7a:e8:2a:
                    16:3f:d6:97:da:c5:42:db:2f:69:64:91:cb:08:d7:
                    56:5a:79:7f:1b:84:41:e9:4d:9d:77:09:10:a8:6c:
                    29:33:44:c6:c0:54:65:e6:e8:e3:f2:75:05:6a:64:
                    95:6c:c0:f4:fd:25:61:6e:48:36:f0:c0:03:07:05:
                    d6:7c:e5:11:fd:18:e8:4a:2d:d3:72:0c:37:28:36:
                    31:31:38:85:e8:71:8d:d8:02:49:c8:bc:19:89:c5:
                    8a:b1:3f:a2:35:ea:aa:90:1c:64:68:7b:af:67:6a:
                    5a:06:54:0f:50:e1:f9:b4:f6:be:3a:d4:ce:3f:1e:
                    4c:7d:c6:77:32:3e:a2:58:ed:db:dd:74:d8:92:14:
                    6a:a8:f7:cb:34:58:91:a8:7c:14:b1:7d:08:b3:4d:
                    b1:47
                Exponent: 65537 (0x10001)
        X509v3 extensions:
            X509v3 Subject Key Identifier: 
                B4:11:33:F1:D7:E2:5E:F7:53:9E:20:22:10:4F:86:06:BF:1F:C9:5E
            X509v3 Authority Key Identifier: 
                keyid:B4:11:33:F1:D7:E2:5E:F7:53:9E:20:22:10:4F:86:06:BF:1F:C9:5E
                DirName:/C=AU/O=Dodgy Brothers/CN=Dodgy CA
                serial:26:4C:9F:2D:64:71:C5:7F:87:47:A5:3E:B2:32:B3:4B:6D:09:86:BD
            X509v3 Basic Constraints: critical
                CA:TRUE, pathlen:1
            X509v3 Key Usage: 
                Certificate Sign, CRL Sign
            X509v3 Issuer Alternative Name: 
                <EMPTY>

    Signature Algorithm: sha1WithRSAEncryption
    Signature Value:
        85:45:00:da:b9:2d:97:a3:a8:7c:6d:12:e6:73:ec:02:3b:f8:
        c0:10:56:0f:da:cb:63:c6:6d:76:e7:75:e6:9c:9d:8d:15:61:
        c8:62:d6:d0:82:6a:b3:04:7b:fc:b8:b3:b4:e3:6e:6f:f9:cc:
        c3:70:0f:3a:9c:fb:af:59:52:2f:1a:86:37:0e:fe:eb:07:da:
        e1:d7:e7:43:3b:3b:d0:26:aa:5e:8e:20:7d:68:6f:f9:89:8e:
        88:d5:fc:f5:17:a0:b7:43:7b:c6:a0:3e:0c:25:9f:a1:db:5b:
        4b:fb:bd:6f:a9:f0:8f:72:08:8c:07:49:9b:c8:81:f7:af:a3:
        ba:56:44:25:d0:d9:af:3b:47:e0:c2:85:48:8c:5a:b7:84:c3:
        de:a4:4f:a5:6f:01:36:40:b0:56:97:40:f5:54:e9:55:32:e8:
        12:d2:85:84:34:51:02:8d:f1:90:73:7d:bb:e9:48:84:bf:bf:
        7a:e0:25:5e:a6:f4:17:9b:14:1e:e5:6a:60:31:94:a9:b7:22:
        30:9a:45:45:35:28:83:61:03:25:99:34:c6:49:a7:43:ba:7c:
        3a:c0:e1:b8:da:9c:7b:75:2a:eb:1e:1b:36:9a:e9:f9:2d:1e:
        ae:15:99:46:f8:58:9f:16:b4:1c:44:fe:c0:1f:4b:18:bf:6a:
        e5:63:ce:1b
-----BEGIN CERTIFICATE-----
MIIDxTCCAq2gAwIBAgIUJkyfLWRxxX+HR6U+sjKzS20Jhr0wDQYJKoZIhvcNAQEF
BQAwOTELMAkGA1UEBhMCQVUxFzAVBgNVBAoMDkRvZGd5IEJyb3RoZXJzMREwDwYD
VQQDDAhEb2RneSBDQTAeFw0yNDAzMTgxNTUyMjJaFw0yNzAzMTgxNTUyMjJaMDkx
CzAJBgNVBAYTAkFVMRcwFQYDVQQKDA5Eb2RneSBCcm90aGVyczERMA8GA1UEAwwI
RG9kZ3kgQ0EwggEiMA0GCSqGSIb3DQEBAQUAA4IBDwAwggEKAoIBAQCWnaQ9AEsc
X8bL3Y/SMbKIFczEhixc4mmLhPSno1PfkeO/UYn78HwQDTutrDVidfV///RuVI8F
ppIjs59ZOdA5GLAQQN5ic4pOsI7f3OfJQSJUhIAIKbw1PIbfMN7dtCT/fmKlwHro
KhY/1pfaxULbL2lkkcsI11ZaeX8bhEHpTZ13CRCobCkzRMbAVGXm6OPydQVqZJVs
wPT9JWFuSDbwwAMHBdZ85RH9GOhKLdNyDDcoNjExOIXocY3YAknIvBmJxYqxP6I1
6qqQHGRoe69naloGVA9Q4fm09r461M4/Hkx9xncyPqJY7dvddNiSFGqo98s0WJGo
fBSxfQizTbFHAgMBAAGjgcQwgcEwHQYDVR0OBBYEFLQRM/HX4l73U54gIhBPhga/
H8leMHQGA1UdIwRtMGuAFLQRM/HX4l73U54gIhBPhga/H8leoT2kOzA5MQswCQYD
VQQGEwJBVTEXMBUGA1UECgwORG9kZ3kgQnJvdGhlcnMxETAPBgNVBAMMCERvZGd5
IENBghQmTJ8tZHHFf4dHpT6yMrNLbQmGvTASBgNVHRMBAf8ECDAGAQH/AgEBMAsG
A1UdDwQEAwIBBjAJBgNVHRIEAjAAMA0GCSqGSIb3DQEBBQUAA4IBAQCFRQDauS2X
o6h8bRLmc+wCO/jAEFYP2stjxm1253XmnJ2NFWHIYtbQgmqzBHv8uLO0425v+czD
cA86nPuvWVIvGoY3Dv7rB9rh1+dDOzvQJqpejiB9aG/5iY6I1fz1F6C3Q3vGoD4M
JZ+h21tL+71vqfCPcgiMB0mbyIH3r6O6VkQl0NmvO0fgwoVIjFq3hMPepE+lbwE2
QLBWl0D1VOlVMugS0oWENFECjfGQc3276UiEv7964CVepvQXmxQe5WpgMZSptyIw
mkVFNSiDYQMlmTTGSadDunw6wOG42px7dSrrHhs2mun5LR6uFZlG+FifFrQcRP7A
H0sYv2rlY84b
-----END CERTIFICATE-----
