Certificate:
    Data:
        Version: 3 (0x2)
        Serial Number: 1234567890 (0x499602d2)
        Signature Algorithm: sha256WithRSAEncryption
        Issuer: CN=ca.example.com
        Validity
            Not Before: Mar 18 15:51:32 2024 GMT
            Not After : Mar 18 15:51:32 2025 GMT
        Subject: CN=test.example.com
        Subject Public Key Info:
            Public Key Algorithm: rsaEncryption
                Public-Key: (2048 bit)
                Modulus:
                    00:9d:5c:ee:eb:55:14:03:6a:35:4f:c8:2b:b9:d0:
                    1f:f6:0b:11:54:f4:18:27:27:f1:ce:17:62:38:4a:
                    9c:4a:88:30:82:ba:16:f3:62:a0:28:12:6f:81:9a:
                    bd:15:76:c9:5a:8f:80:2e:33:ae:78:2b:13:19:72:
                    ae:cc:1e:ff:7a:d9:ab:87:05:ed:61:0f:70:a7:0e:
                    21:4d:f1:64:a7:0e:c0:a3:03:d6:c0:77:dc:46:7f:
                    c1:49:f2:81:05:e7:53:e3:f0:64:48:a7:d0:14:6f:
                    4d:07:cc:4f:be:e3:ae:1e:8e:3e:4c:7f:ff:68:f7:
                    10:15:69:88:43:ed:1d:61:a3:14:2f:f5:09:7f:88:
                    87:64:49:79:17:fb:aa:25:c5:93:5f:49:a9:2d:79:
                    6c:2d:e7:e9:4b:b5:a1:09:ef:8c:db:81:8d:46:20:
                    84:e3:6a:c9:2d:a3:66:e4:28:9d:6b:77:4d:8d:0e:
                    1b:99:8b:ca:32:59:71:c3:40:c7:5a:b1:04:a7:8d:
                    fe:a2:91:e7:82:cc:f5:91:da:98:6b:b6:e9:01:a8:
                    e2:27:80:1a:79:ae:c7:bf:8d:00:e9:b9:03:09:c3:
                    10:e4:d2:83:f5:37:f6:ef:70:dd:dc:04:8b:92:76:
                    b1:57:80:7c:11:0a:54:56:9c:ce:03:02:87:35:83:
                    e0:15
                Exponent: 65537 (0x10001)
        X509v3 extensions:
            X509v3 Subject Key Identifier: 
                B6:6D:F5:BC:7A:C0:8A:79:34:79:D0:59:D6:2E:BF:B5:F7:31:90:B2
            X509v3 Authority Key Identifier: 
                B6:6D:F5:BC:7A:C0:8A:79:34:79:D0:59:D6:2E:BF:B5:F7:31:90:B2
            X509v3 Basic Constraints: critical
                CA:TRUE
    Signature Algorithm: sha256WithRSAEncryption
    Signature Value:
        51:fd:a7:50:93:da:93:1e:15:ad:fd:dc:d2:15:0d:e8:e5:59:
        fd:77:28:5f:b3:cc:18:32:49:62:f5:53:00:6f:06:7c:72:09:
        09:d0:d2:ee:c3:3e:43:41:d4:24:04:e9:80:16:0d:a6:f8:3c:
        d4:70:1d:c5:ae:64:3d:d3:56:91:fe:1c:e0:ab:9a:09:e8:a7:
        06:37:1e:27:dc:96:c8:cf:b5:2e:86:34:d6:88:cd:7f:63:1f:
        9b:9f:9f:32:be:86:04:13:17:33:20:92:2d:f9:1d:9d:3b:5b:
        1e:4a:d0:1f:6b:11:5e:4f:88:e3:d9:2e:7a:62:d5:e0:3e:a6:
        b4:0a:7c:0f:68:32:23:55:81:17:7b:08:11:10:61:e6:27:53:
        18:b3:da:cd:73:be:63:9f:90:49:0d:b0:b1:cc:97:33:61:44:
        d7:aa:54:bd:4e:7f:01:47:a9:1f:9d:48:2a:fa:75:de:1d:fd:
        58:71:6e:01:0e:c5:e9:29:d0:eb:00:da:b1:7a:15:b3:c1:7c:
        b1:db:06:06:5f:cd:f4:4e:98:07:1a:77:7f:08:30:51:5a:74:
        22:17:85:8a:20:0b:52:fe:bd:5b:02:85:1b:cb:91:0f:2e:81:
        24:f9:37:00:f6:e1:b7:dc:79:6e:91:3a:44:58:56:2d:7e:27:
        56:86:9e:f5:99:64:81:73:d2:7a:25:2e:87:aa:3f:a7:1f:d5:
        a9:f2:cd:06:52:0d:a1:fd:9e:b7:43:bf:8e:62:10:91:a7:48:
        8e:f1:67:14:dd:49:24:e5:9f:67:4f:1b:d7:1b:d1:8a:1b:73:
        21:1c:7d:31:01:e6:57:05:8a:e9:52:d4:87:56:1d:b6:36:f3:
        dc:0e:fe:26:95:fe:e3:6f:2d:43:20:3a:94:3e:d1:f5:be:25:
        0e:78:7f:72:d3:f8:b6:ce:19:aa:1a:60:ec:09:c4:3c:46:a9:
        08:0e:d5:01:b1:4d:6a:18:70:19:a8:44:8c:fb:f3:56:94:bd:
        33:1a:71:3c:1d:1c:7a:24:58:6e:85:4f:8a:d8:2b:f6:bc:63:
        ca:43:e5:7c:84:3b:6b:fe:60:24:c2:07:33:62:ba:9a:9f:4c:
        b6:f1:20:8f:72:d9:8c:fd:8e:91:79:92:8c:9e:2d:21:d4:5d:
        ee:b5:7c:1f:48:43:76:f7:62:40:09:9e:12:31:75:13:1a:7d:
        62:3f:3f:4e:94:08:9d:4f:95:49:2b:54:73:41:99:33:07:af:
        25:e5:5b:08:4f:d0:fa:ea:70:b7:32:45:eb:5b:c2:d6:89:51:
        24:54:e5:3a:24:1e:15:21:81:f7:fb:fd:cc:8d:cc:fd:6d:3a:
        a5:23:6a:f6:92:5d:f6:af
-----BEGIN CERTIFICATE-----
MIIEBTCCAe2gAwIBAgIESZYC0jANBgkqhkiG9w0BAQsFADAZMRcwFQYDVQQDDA5j
YS5leGFtcGxlLmNvbTAeFw0yNDAzMTgxNTUxMzJaFw0yNTAzMTgxNTUxMzJaMBsx
GTAXBgNVBAMMEHRlc3QuZXhhbXBsZS5jb20wggEiMA0GCSqGSIb3DQEBAQUAA4IB
DwAwggEKAoIBAQCdXO7rVRQDajVPyCu50B/2CxFU9BgnJ/HOF2I4SpxKiDCCuhbz
YqAoEm+Bmr0Vdslaj4AuM654KxMZcq7MHv962auHBe1hD3CnDiFN8WSnDsCjA9bA
d9xGf8FJ8oEF51Pj8GRIp9AUb00HzE++464ejj5Mf/9o9xAVaYhD7R1hoxQv9Ql/
iIdkSXkX+6olxZNfSakteWwt5+lLtaEJ74zbgY1GIITjaskto2bkKJ1rd02NDhuZ
i8oyWXHDQMdasQSnjf6ikeeCzPWR2phrtukBqOIngBp5rse/jQDpuQMJwxDk0oP1
N/bvcN3cBIuSdrFXgHwRClRWnM4DAoc1g+AVAgMBAAGjUzBRMB0GA1UdDgQWBBS2
bfW8esCKeTR50FnWLr+19zGQsjAfBgNVHSMEGDAWgBS2bfW8esCKeTR50FnWLr+1
9zGQsjAPBgNVHRMBAf8EBTADAQH/MA0GCSqGSIb3DQEBCwUAA4ICAQBR/adQk9qT
HhWt/dzSFQ3o5Vn9dyhfs8wYMkli9VMAbwZ8cgkJ0NLuwz5DQdQkBOmAFg2m+DzU
cB3FrmQ901aR/hzgq5oJ6KcGNx4n3JbIz7UuhjTWiM1/Yx+bn58yvoYEExczIJIt
+R2dO1seStAfaxFeT4jj2S56YtXgPqa0CnwPaDIjVYEXewgREGHmJ1MYs9rNc75j
n5BJDbCxzJczYUTXqlS9Tn8BR6kfnUgq+nXeHf1YcW4BDsXpKdDrANqxehWzwXyx
2wYGX830TpgHGnd/CDBRWnQiF4WKIAtS/r1bAoUby5EPLoEk+TcA9uG33HlukTpE
WFYtfidWhp71mWSBc9J6JS6Hqj+nH9Wp8s0GUg2h/Z63Q7+OYhCRp0iO8WcU3Ukk
5Z9nTxvXG9GKG3MhHH0xAeZXBYrpUtSHVh22NvPcDv4mlf7jby1DIDqUPtH1viUO
eH9y0/i2zhmqGmDsCcQ8RqkIDtUBsU1qGHAZqESM+/NWlL0zGnE8HRx6JFhuhU+K
2Cv2vGPKQ+V8hDtr/mAkwgczYrqan0y28SCPctmM/Y6ReZKMni0h1F3utXwfSEN2
92JACZ4SMXUTGn1iPz9OlAidT5VJK1RzQZkzB68l5VsIT9D66nC3MkXrW8LWiVEk
VOU6JB4VIYH3+/3Mjcz9bTqlI2r2kl32rw==
-----END CERTIFICATE-----
