Certificate:
    Data:
        Version: 3 (0x2)
        Serial Number:
            32:08:09:e8:82:92:ba:79:17:6b:7b:1c:7c:49:9a:84:8e:1c:0f:78
        Signature Algorithm: sha256WithRSAEncryption
        Issuer: CN=ca.example.com
        Validity
            Not Before: Mar 18 15:51:33 2024 GMT
            Not After : Apr 17 15:51:33 2024 GMT
        Subject: CN=b.example.com
        Subject Public Key Info:
            Public Key Algorithm: rsaEncryption
                Public-Key: (4096 bit)
                Modulus:
                    00:b8:56:ac:3c:c2:3d:19:2d:41:c0:c6:50:22:70:
                    88:e8:48:ac:92:06:0b:5f:a3:a7:cd:63:1a:be:8e:
                    f8:5a:8a:1f:72:f1:bd:d2:86:03:ba:22:2d:e9:d1:
                    ec:2e:25:6c:5a:91:1c:e6:8c:dd:b7:c3:e6:56:78:
                    70:7a:63:b5:c4:62:a9:8d:c4:96:47:8d:b2:89:ce:
                    8c:b0:d6:03:6d:81:42:a4:ec:75:1d:75:41:ed:62:
                    2f:f4:2d:c4:d1:2f:9c:6a:c3:07:c5:5c:20:21:18:
                    a2:c3:71:ec:f2:07:dd:ea:06:be:fd:2b:5a:ca:ef:
                    91:bc:08:30:77:12:04:b0:8b:e4:99:94:4a:8e:cf:
                    77:df:56:a2:d8:c2:77:80:db:71:f3:ba:b3:0e:95:
                    34:cb:c9:26:a8:22:c4:a9:5d:5e:8a:4f:cd:85:b0:
                    7b:9e:bf:af:ee:7d:b9:68:5c:a5:73:75:4e:18:0d:
                    c7:e7:c5:14:fe:9a:99:2c:f9:a6:26:79:95:12:79:
                    32:c0:9e:05:d2:f1:09:7b:32:d6:ef:d2:89:3e:7c:
                    14:5a:38:94:f4:02:97:40:9e:10:a6:71:4b:16:5e:
                    0d:a2:17:c7:1a:42:04:76:4d:47:72:2a:8a:29:4b:
                    a5:0e:98:90:22:57:fe:11:4f:0f:e4:49:31:b9:d8:
                    69:7b:7e:df:87:83:36:48:d7:f0:96:5d:b2:14:dc:
                    85:ce:bc:82:91:26:f9:2d:7c:9b:37:fe:22:56:30:
                    e7:d8:5d:ca:8f:cf:0b:8a:5e:e6:0f:c3:c4:57:7d:
                    2f:5b:1c:8e:06:1c:de:ca:6c:7c:fe:44:8a:04:a3:
                    b5:51:aa:e9:67:92:6a:4b:35:28:fa:9e:4e:29:dc:
                    0e:f8:6a:ed:ae:e2:e4:4a:cb:0f:e7:37:cc:92:96:
                    78:6b:98:12:fd:1f:14:44:bc:61:50:cc:43:21:93:
                    07:12:a8:e9:26:e0:9e:8a:aa:b2:cf:3c:59:2c:cc:
                    b7:79:78:71:2f:91:99:34:6a:e6:ef:68:02:4e:16:
                    f3:33:f6:76:04:70:23:f0:81:ac:67:ff:7d:b1:eb:
                    e3:9b:54:5f:c5:eb:a8:93:85:17:6f:7e:aa:59:0c:
                    76:1f:5e:be:66:cf:d1:4a:0e:cb:0c:b3:3d:03:05:
                    13:8a:02:4b:43:90:0e:0a:cf:d7:ba:e8:ac:84:90:
                    0e:f0:03:b4:86:18:15:a5:ca:40:87:e0:45:f5:4d:
                    18:6b:d7:ba:74:c6:c8:6f:4a:cf:af:f3:fc:67:95:
                    6f:83:1a:e2:10:d3:51:e3:02:e6:24:11:dd:5a:48:
                    fb:d2:3d:09:2a:90:af:53:f5:2b:a7:c7:a3:09:55:
                    a2:96:8b
                Exponent: 65537 (0x10001)
        X509v3 extensions:
            X509v3 Subject Key Identifier: 
                9B:1A:5F:E2:13:15:37:A6:1D:C5:F7:E7:18:A7:77:D1:77:D8:5F:91
            X509v3 Authority Key Identifier: 
                BC:95:EA:42:5E:6C:F5:15:A4:3C:AC:D9:38:85:9F:C3:42:51:A3:1D
    Signature Algorithm: sha256WithRSAEncryption
    Signature Value:
        2e:e9:d3:40:55:0e:67:90:1e:d4:92:e0:9f:a7:ed:21:2a:2e:
        f1:b9:1c:09:56:9f:01:79:f7:6e:fa:5b:80:92:a7:b2:9e:46:
        a9:c3:80:3f:7d:ca:60:70:bd:66:bf:13:07:b2:48:9a:22:51:
        6a:0b:0b:dc:a7:52:9c:81:8e:fb:22:93:08:f9:eb:32:e0:cc:
        f9:57:82:f9:e6:79:d9:7e:61:f0:f9:e9:c2:3b:92:b0:e2:5b:
        01:ba:66:14:2e:eb:3e:74:3a:d6:2a:26:9f:7b:1b:1e:ee:7c:
        79:63:25:74:5c:c8:f1:0a:e7:59:2c:c0:56:6e:e1:61:3e:2b:
        22:71:4f:e3:2e:d9:44:03:fa:d8:56:e7:06:15:b9:94:26:9e:
        ca:5c:a4:91:23:74:d5:51:1a:66:03:1c:aa:28:08:cb:f4:e5:
        25:48:e1:62:46:59:74:90:be:bc:46:96:a8:e7:8a:98:dc:01:
        c3:03:14:a8:f2:73:ca:d5:1c:48:73:21:53:06:dc:21:9e:d8:
        af:16:08:07:cd:bb:85:cd:a4:0e:3f:0f:50:ba:53:3b:7e:1d:
        b0:98:5e:23:a8:15:37:21:1b:c9:e5:02:75:27:ed:91:a5:2f:
        6f:c1:67:d8:74:75:23:d8:6e:0a:85:c5:11:14:1d:24:8c:1a:
        52:1a:84:1f:e6:b4:b4:84:a5:1d:ef:e7:32:8b:2a:2e:7d:55:
        d8:0f:ab:52:22:b5:45:89:70:b3:a5:8b:aa:7b:8a:fb:0f:7c:
        c2:83:b4:03:33:3c:45:43:a7:e6:b7:d6:07:c5:dd:95:97:e5:
        3b:51:3f:e7:ca:94:c9:be:30:09:07:b7:f1:cd:fe:ad:0b:12:
        0e:c8:35:17:30:81:bd:9a:43:4d:1b:b9:f9:0b:21:eb:27:9c:
        25:ec:57:44:d2:d4:a8:14:0c:3e:42:25:ef:6c:03:d0:d2:ea:
        c5:8a:a6:ca:6a:c5:59:11:1e:1d:04:08:df:43:e7:4f:26:69:
        53:72:a0:82:fa:41:76:91:e4:95:4e:80:5e:dc:5f:22:d5:05:
        c2:2f:a5:fa:4c:4e:3d:7a:37:88:e6:7c:96:46:9f:2c:76:d2:
        89:37:54:19:c3:a7:3e:ad:72:9f:73:16:12:22:00:0b:81:f2:
        86:64:6c:10:c0:ec:89:e3:64:a7:01:a0:ed:17:a1:d8:b5:74:
        6a:2b:04:ed:f0:d4:00:fc:16:5e:b1:a1:17:69:4a:50:10:24:
        30:84:a6:a9:da:9e:a3:59:86:cd:a9:fb:0f:8b:aa:3d:bc:7a:
        1d:ad:2a:ce:e7:ef:ff:e3:f3:8d:c3:7e:86:66:d2:20:6a:53:
        c9:d4:0b:4a:bf:85:16:cd
-----BEGIN CERTIFICATE-----
MIIFATCCAumgAwIBAgIUMggJ6IKSunkXa3scfEmahI4cD3gwDQYJKoZIhvcNAQEL
BQAwGTEXMBUGA1UEAwwOY2EuZXhhbXBsZS5jb20wHhcNMjQwMzE4MTU1MTMzWhcN
MjQwNDE3MTU1MTMzWjAYMRYwFAYDVQQDDA1iLmV4YW1wbGUuY29tMIICIjANBgkq
hkiG9w0BAQEFAAOCAg8AMIICCgKCAgEAuFasPMI9GS1BwMZQInCI6EiskgYLX6On
zWMavo74WoofcvG90oYDuiIt6dHsLiVsWpEc5ozdt8PmVnhwemO1xGKpjcSWR42y
ic6MsNYDbYFCpOx1HXVB7WIv9C3E0S+casMHxVwgIRiiw3Hs8gfd6ga+/Stayu+R
vAgwdxIEsIvkmZRKjs9331ai2MJ3gNtx87qzDpU0y8kmqCLEqV1eik/NhbB7nr+v
7n25aFylc3VOGA3H58UU/pqZLPmmJnmVEnkywJ4F0vEJezLW79KJPnwUWjiU9AKX
QJ4QpnFLFl4NohfHGkIEdk1HciqKKUulDpiQIlf+EU8P5Ekxudhpe37fh4M2SNfw
ll2yFNyFzryCkSb5LXybN/4iVjDn2F3Kj88Lil7mD8PEV30vWxyOBhzeymx8/kSK
BKO1UarpZ5JqSzUo+p5OKdwO+GrtruLkSssP5zfMkpZ4a5gS/R8URLxhUMxDIZMH
EqjpJuCeiqqyzzxZLMy3eXhxL5GZNGrm72gCThbzM/Z2BHAj8IGsZ/99sevjm1Rf
xeuok4UXb36qWQx2H16+Zs/RSg7LDLM9AwUTigJLQ5AOCs/XuuishJAO8AO0hhgV
pcpAh+BF9U0Ya9e6dMbIb0rPr/P8Z5VvgxriENNR4wLmJBHdWkj70j0JKpCvU/Ur
p8ejCVWilosCAwEAAaNCMEAwHQYDVR0OBBYEFJsaX+ITFTemHcX35xind9F32F+R
MB8GA1UdIwQYMBaAFLyV6kJebPUVpDys2TiFn8NCUaMdMA0GCSqGSIb3DQEBCwUA
A4ICAQAu6dNAVQ5nkB7UkuCfp+0hKi7xuRwJVp8Befdu+luAkqeynkapw4A/fcpg
cL1mvxMHskiaIlFqCwvcp1KcgY77IpMI+esy4Mz5V4L55nnZfmHw+enCO5Kw4lsB
umYULus+dDrWKiafexse7nx5YyV0XMjxCudZLMBWbuFhPisicU/jLtlEA/rYVucG
FbmUJp7KXKSRI3TVURpmAxyqKAjL9OUlSOFiRll0kL68Rpao54qY3AHDAxSo8nPK
1RxIcyFTBtwhntivFggHzbuFzaQOPw9QulM7fh2wmF4jqBU3IRvJ5QJ1J+2RpS9v
wWfYdHUj2G4KhcURFB0kjBpSGoQf5rS0hKUd7+cyiyoufVXYD6tSIrVFiXCzpYuq
e4r7D3zCg7QDMzxFQ6fmt9YHxd2Vl+U7UT/nypTJvjAJB7fxzf6tCxIOyDUXMIG9
mkNNG7n5CyHrJ5wl7FdE0tSoFAw+QiXvbAPQ0urFiqbKasVZER4dBAjfQ+dPJmlT
cqCC+kF2keSVToBe3F8i1QXCL6X6TE49ejeI5nyWRp8sdtKJN1QZw6c+rXKfcxYS
IgALgfKGZGwQwOyJ42SnAaDtF6HYtXRqKwTt8NQA/BZesaEXaUpQECQwhKap2p6j
WYbNqfsPi6o9vHodrSrO5+//4/ONw36GZtIgalPJ1AtKv4UWzQ==
-----END CERTIFICATE-----
