Certificate:
    Data:
        Version: 3 (0x2)
        Serial Number:
            30:db:a4:6b:90:98:f9:c6:c3:2d:14:2f:b5:f6:d4:b8:88:e0:b8:c4
        Signature Algorithm: sha1WithRSAEncryption
        Issuer: C=AU, O=Dodgy Brothers, CN=Dodgy CA
        Validity
            Not Before: Mar 18 15:52:23 2024 GMT
            Not After : Mar 18 15:52:23 2025 GMT
        Subject: C=AU, O=Dodgy Brothers, CN=Brother 1, CN=both_utctime
        Subject Public Key Info:
            Public Key Algorithm: rsaEncryption
                Public-Key: (2048 bit)
                Modulus:
                    00:be:95:86:fa:71:4c:6a:ea:51:98:50:4b:99:a1:
                    2c:66:15:f3:60:f3:e1:ff:69:fb:ce:48:01:1d:fe:
                    e1:2c:38:b0:e3:bd:8f:4b:48:a7:7e:3a:c6:73:e3:
                    ab:bf:e1:da:6e:96:f5:fe:c3:e4:b4:a8:ad:bc:56:
                    34:d4:96:25:74:27:c3:10:db:35:10:25:1c:8e:4b:
                    81:9b:fb:42:04:7c:6f:3d:e2:38:6c:0e:e4:2e:8e:
                    2a:18:6d:30:cd:67:2a:23:6b:37:cf:05:9f:cc:b7:
                    59:58:7f:ba:c4:0a:3f:8c:a4:ad:cb:98:9c:c0:f2:
                    8f:69:67:0f:c1:4e:33:cf:fc:85:5e:bb:5e:cf:93:
                    b0:cf:d9:f4:52:79:87:b1:f8:4d:15:68:65:d5:b7:
                    19:08:63:7f:5e:b1:34:ad:05:8f:5a:f0:e4:e1:8f:
                    25:f2:5c:5c:61:95:b0:56:2d:31:2b:08:65:79:e5:
                    b1:3b:9d:3e:b9:52:4b:ac:5d:c4:58:66:85:8d:81:
                    b3:04:28:f4:3f:2f:ac:92:01:62:d5:fd:8e:0b:da:
                    02:0c:7a:c7:6e:09:1c:ac:1c:b2:4c:d7:54:b8:26:
                    33:b2:5f:14:f3:b1:f9:3d:62:4d:40:99:6b:b6:e7:
                    89:58:97:d6:d4:4d:ea:4b:68:52:f3:3c:a8:b1:35:
                    88:db
                Exponent: 65537 (0x10001)
        X509v3 extensions:
            X509v3 Subject Key Identifier: 
                A1:DF:33:C3:CF:3E:53:41:A7:68:44:CC:AA:19:E1:84:C9:0D:BC:C6
            X509v3 Authority Key Identifier: 
                keyid:B4:11:33:F1:D7:E2:5E:F7:53:9E:20:22:10:4F:86:06:BF:1F:C9:5E
                DirName:/C=AU/O=Dodgy Brothers/CN=Dodgy CA
                serial:26:4C:9F:2D:64:71:C5:7F:87:47:A5:3E:B2:32:B3:4B:6D:09:86:BD
            X509v3 Basic Constraints: critical
                CA:TRUE, pathlen:1
            X509v3 Key Usage: 
                Certificate Sign, CRL Sign
            X509v3 Issuer Alternative Name: 
                <EMPTY>

    Signature Algorithm: sha1WithRSAEncryption
    Signature Value:
        38:ea:4b:22:25:32:fc:08:c5:f5:fa:74:64:0c:35:c1:7f:a0:
        3c:e4:53:d9:3e:d9:16:e3:64:60:cd:b0:9c:a0:7e:4c:fc:dc:
        14:dc:f4:cc:19:68:fe:bb:69:46:c2:ae:cc:d3:f4:92:89:b7:
        ee:89:83:a4:f2:5a:85:cd:10:89:25:91:9b:c6:be:1c:cf:5e:
        40:7f:89:5c:12:72:c2:c3:f6:ad:92:d9:82:17:fd:a1:17:46:
        05:db:c5:2a:b3:64:b7:fd:35:c9:fd:60:bd:80:09:18:9a:f6:
        24:27:3c:2b:df:21:41:37:da:59:66:2f:01:38:5d:7d:d6:bc:
        98:ad:03:53:5f:eb:b5:5a:88:c7:6c:fa:e5:2c:ba:a1:33:c6:
        bb:71:80:78:3c:c1:50:a1:14:f4:87:d2:2d:52:61:16:64:69:
        e6:c8:85:c4:b3:b6:48:70:b8:52:49:fa:8b:30:b5:74:91:44:
        c5:a1:87:3d:3a:e8:44:a7:d8:ce:8b:e2:c2:9b:ad:f7:c8:4e:
        a5:f8:03:0e:92:a5:81:a1:a4:7a:57:92:a7:2e:14:bb:bf:05:
        0c:b9:d5:4a:b1:82:27:19:96:c3:ca:23:78:49:62:6d:1e:95:
        2e:e8:ba:8d:ea:45:71:66:aa:1e:b2:e0:38:9e:c1:e2:4c:15:
        22:42:55:24
-----BEGIN CERTIFICATE-----
MIID3TCCAsWgAwIBAgIUMNuka5CY+cbDLRQvtfbUuIjguMQwDQYJKoZIhvcNAQEF
BQAwOTELMAkGA1UEBhMCQVUxFzAVBgNVBAoMDkRvZGd5IEJyb3RoZXJzMREwDwYD
VQQDDAhEb2RneSBDQTAeFw0yNDAzMTgxNTUyMjNaFw0yNTAzMTgxNTUyMjNaMFEx
CzAJBgNVBAYTAkFVMRcwFQYDVQQKDA5Eb2RneSBCcm90aGVyczESMBAGA1UEAwwJ
QnJvdGhlciAxMRUwEwYDVQQDDAxib3RoX3V0Y3RpbWUwggEiMA0GCSqGSIb3DQEB
AQUAA4IBDwAwggEKAoIBAQC+lYb6cUxq6lGYUEuZoSxmFfNg8+H/afvOSAEd/uEs
OLDjvY9LSKd+OsZz46u/4dpulvX+w+S0qK28VjTUliV0J8MQ2zUQJRyOS4Gb+0IE
fG894jhsDuQujioYbTDNZyojazfPBZ/Mt1lYf7rECj+MpK3LmJzA8o9pZw/BTjPP
/IVeu17Pk7DP2fRSeYex+E0VaGXVtxkIY39esTStBY9a8OThjyXyXFxhlbBWLTEr
CGV55bE7nT65UkusXcRYZoWNgbMEKPQ/L6ySAWLV/Y4L2gIMesduCRysHLJM11S4
JjOyXxTzsfk9Yk1AmWu254lYl9bUTepLaFLzPKixNYjbAgMBAAGjgcQwgcEwHQYD
VR0OBBYEFKHfM8PPPlNBp2hEzKoZ4YTJDbzGMHQGA1UdIwRtMGuAFLQRM/HX4l73
U54gIhBPhga/H8leoT2kOzA5MQswCQYDVQQGEwJBVTEXMBUGA1UECgwORG9kZ3kg
QnJvdGhlcnMxETAPBgNVBAMMCERvZGd5IENBghQmTJ8tZHHFf4dHpT6yMrNLbQmG
vTASBgNVHRMBAf8ECDAGAQH/AgEBMAsGA1UdDwQEAwIBBjAJBgNVHRIEAjAAMA0G
CSqGSIb3DQEBBQUAA4IBAQA46ksiJTL8CMX1+nRkDDXBf6A85FPZPtkW42RgzbCc
oH5M/NwU3PTMGWj+u2lGwq7M0/SSibfuiYOk8lqFzRCJJZGbxr4cz15Af4lcEnLC
w/atktmCF/2hF0YF28Uqs2S3/TXJ/WC9gAkYmvYkJzwr3yFBN9pZZi8BOF191ryY
rQNTX+u1WojHbPrlLLqhM8a7cYB4PMFQoRT0h9ItUmEWZGnmyIXEs7ZIcLhSSfqL
MLV0kUTFoYc9OuhEp9jOi+LCm633yE6l+AMOkqWBoaR6V5KnLhS7vwUMudVKsYIn
GZbDyiN4SWJtHpUu6LqN6kVxZqoesuA4nsHiTBUiQlUk
-----END CERTIFICATE-----
