Certificate:
    Data:
        Version: 3 (0x2)
        Serial Number:
            30:db:a4:6b:90:98:f9:c6:c3:2d:14:2f:b5:f6:d4:b8:88:e0:b8:c5
        Signature Algorithm: sha1WithRSAEncryption
        Issuer: C=AU, O=Dodgy Brothers, CN=Dodgy CA
        Validity
            Not Before: Mar 18 15:52:23 2024 GMT
            Not After : Mar 18 15:52:23 2025 GMT
        Subject: C=AU, O=Dodgy Brothers, CN=Brother 1, CN=both_generalizedtime
        Subject Public Key Info:
            Public Key Algorithm: rsaEncryption
                Public-Key: (2048 bit)
                Modulus:
                    00:be:95:86:fa:71:4c:6a:ea:51:98:50:4b:99:a1:
                    2c:66:15:f3:60:f3:e1:ff:69:fb:ce:48:01:1d:fe:
                    e1:2c:38:b0:e3:bd:8f:4b:48:a7:7e:3a:c6:73:e3:
                    ab:bf:e1:da:6e:96:f5:fe:c3:e4:b4:a8:ad:bc:56:
                    34:d4:96:25:74:27:c3:10:db:35:10:25:1c:8e:4b:
                    81:9b:fb:42:04:7c:6f:3d:e2:38:6c:0e:e4:2e:8e:
                    2a:18:6d:30:cd:67:2a:23:6b:37:cf:05:9f:cc:b7:
                    59:58:7f:ba:c4:0a:3f:8c:a4:ad:cb:98:9c:c0:f2:
                    8f:69:67:0f:c1:4e:33:cf:fc:85:5e:bb:5e:cf:93:
                    b0:cf:d9:f4:52:79:87:b1:f8:4d:15:68:65:d5:b7:
                    19:08:63:7f:5e:b1:34:ad:05:8f:5a:f0:e4:e1:8f:
                    25:f2:5c:5c:61:95:b0:56:2d:31:2b:08:65:79:e5:
                    b1:3b:9d:3e:b9:52:4b:ac:5d:c4:58:66:85:8d:81:
                    b3:04:28:f4:3f:2f:ac:92:01:62:d5:fd:8e:0b:da:
                    02:0c:7a:c7:6e:09:1c:ac:1c:b2:4c:d7:54:b8:26:
                    33:b2:5f:14:f3:b1:f9:3d:62:4d:40:99:6b:b6:e7:
                    89:58:97:d6:d4:4d:ea:4b:68:52:f3:3c:a8:b1:35:
                    88:db
                Exponent: 65537 (0x10001)
        X509v3 extensions:
            X509v3 Subject Key Identifier: 
                A1:DF:33:C3:CF:3E:53:41:A7:68:44:CC:AA:19:E1:84:C9:0D:BC:C6
            X509v3 Authority Key Identifier: 
                keyid:B4:11:33:F1:D7:E2:5E:F7:53:9E:20:22:10:4F:86:06:BF:1F:C9:5E
                DirName:/C=AU/O=Dodgy Brothers/CN=Dodgy CA
                serial:26:4C:9F:2D:64:71:C5:7F:87:47:A5:3E:B2:32:B3:4B:6D:09:86:BD
            X509v3 Basic Constraints: critical
                CA:TRUE, pathlen:1
            X509v3 Key Usage: 
                Certificate Sign, CRL Sign
            X509v3 Issuer Alternative Name: 
                <EMPTY>

    Signature Algorithm: sha1WithRSAEncryption
    Signature Value:
        03:9f:57:21:ea:54:9b:d5:86:c6:ff:81:40:06:78:c3:47:de:
        fd:92:b0:8d:04:08:0a:87:60:c7:de:11:ae:69:c2:32:fe:73:
        02:fc:d0:ce:d5:d6:ad:04:fa:ac:bc:40:72:88:01:c9:c5:fe:
        5b:4b:37:2e:e4:f0:61:9e:77:db:0b:26:be:13:f9:9d:cb:7f:
        d9:e5:c4:f7:20:c0:77:54:55:ea:a9:8b:4e:5e:31:81:4f:54:
        80:d1:00:26:d9:8d:bf:4a:8f:35:75:16:36:3a:57:20:eb:5a:
        87:23:a9:fd:55:7d:3a:90:ec:06:4c:56:4e:05:bb:5f:89:1f:
        24:69:f8:0a:15:85:f7:19:fd:aa:b6:c9:5a:b3:95:a2:25:4a:
        c2:77:bb:bf:49:c9:0d:53:22:ab:eb:92:61:d5:81:ac:29:48:
        61:e1:ae:2b:a4:d9:f3:9e:e0:a6:2c:76:f6:9e:30:b9:1b:eb:
        08:a1:08:44:33:50:84:9f:3b:8c:0c:6e:c0:6e:04:52:dd:bc:
        2d:76:6e:ec:e5:85:06:aa:e6:29:2a:67:3a:89:52:88:aa:95:
        48:14:e2:61:b5:80:f1:45:b9:1a:8d:05:0b:42:fb:fe:39:ae:
        f6:9f:3e:38:83:9c:95:20:a0:2d:a4:9f:69:2d:5a:88:96:fa:
        0b:98:ad:83
-----BEGIN CERTIFICATE-----
MIID5TCCAs2gAwIBAgIUMNuka5CY+cbDLRQvtfbUuIjguMUwDQYJKoZIhvcNAQEF
BQAwOTELMAkGA1UEBhMCQVUxFzAVBgNVBAoMDkRvZGd5IEJyb3RoZXJzMREwDwYD
VQQDDAhEb2RneSBDQTAeFw0yNDAzMTgxNTUyMjNaFw0yNTAzMTgxNTUyMjNaMFkx
CzAJBgNVBAYTAkFVMRcwFQYDVQQKDA5Eb2RneSBCcm90aGVyczESMBAGA1UEAwwJ
QnJvdGhlciAxMR0wGwYDVQQDDBRib3RoX2dlbmVyYWxpemVkdGltZTCCASIwDQYJ
KoZIhvcNAQEBBQADggEPADCCAQoCggEBAL6VhvpxTGrqUZhQS5mhLGYV82Dz4f9p
+85IAR3+4Sw4sOO9j0tIp346xnPjq7/h2m6W9f7D5LSorbxWNNSWJXQnwxDbNRAl
HI5LgZv7QgR8bz3iOGwO5C6OKhhtMM1nKiNrN88Fn8y3WVh/usQKP4ykrcuYnMDy
j2lnD8FOM8/8hV67Xs+TsM/Z9FJ5h7H4TRVoZdW3GQhjf16xNK0Fj1rw5OGPJfJc
XGGVsFYtMSsIZXnlsTudPrlSS6xdxFhmhY2BswQo9D8vrJIBYtX9jgvaAgx6x24J
HKwcskzXVLgmM7JfFPOx+T1iTUCZa7bniViX1tRN6ktoUvM8qLE1iNsCAwEAAaOB
xDCBwTAdBgNVHQ4EFgQUod8zw88+U0GnaETMqhnhhMkNvMYwdAYDVR0jBG0wa4AU
tBEz8dfiXvdTniAiEE+GBr8fyV6hPaQ7MDkxCzAJBgNVBAYTAkFVMRcwFQYDVQQK
DA5Eb2RneSBCcm90aGVyczERMA8GA1UEAwwIRG9kZ3kgQ0GCFCZMny1kccV/h0el
PrIys0ttCYa9MBIGA1UdEwEB/wQIMAYBAf8CAQEwCwYDVR0PBAQDAgEGMAkGA1Ud
EgQCMAAwDQYJKoZIhvcNAQEFBQADggEBAAOfVyHqVJvVhsb/gUAGeMNH3v2SsI0E
CAqHYMfeEa5pwjL+cwL80M7V1q0E+qy8QHKIAcnF/ltLNy7k8GGed9sLJr4T+Z3L
f9nlxPcgwHdUVeqpi05eMYFPVIDRACbZjb9KjzV1FjY6VyDrWocjqf1VfTqQ7AZM
Vk4Fu1+JHyRp+AoVhfcZ/aq2yVqzlaIlSsJ3u79JyQ1TIqvrkmHVgawpSGHhriuk
2fOe4KYsdvaeMLkb6wihCEQzUISfO4wMbsBuBFLdvC12buzlhQaq5ikqZzqJUoiq
lUgU4mG1gPFFuRqNBQtC+/45rvafPjiDnJUgoC2kn2ktWoiW+guYrYM=
-----END CERTIFICATE-----
