Certificate:
    Data:
        Version: 3 (0x2)
        Serial Number:
            30:db:a4:6b:90:98:f9:c6:c3:2d:14:2f:b5:f6:d4:b8:88:e0:b8:bf
        Signature Algorithm: sha1WithRSAEncryption
        Issuer: C=AU, O=Dodgy Brothers, CN=Dodgy CA
        Validity
            Not Before: Mar 18 15:52:22 2024 GMT
            Not After : Mar 18 15:52:22 2025 GMT
        Subject: C=AU, O=Dodgy Brothers, CN=Brother 1, CN=lastupdate_utctime
        Subject Public Key Info:
            Public Key Algorithm: rsaEncryption
                Public-Key: (2048 bit)
                Modulus:
                    00:be:95:86:fa:71:4c:6a:ea:51:98:50:4b:99:a1:
                    2c:66:15:f3:60:f3:e1:ff:69:fb:ce:48:01:1d:fe:
                    e1:2c:38:b0:e3:bd:8f:4b:48:a7:7e:3a:c6:73:e3:
                    ab:bf:e1:da:6e:96:f5:fe:c3:e4:b4:a8:ad:bc:56:
                    34:d4:96:25:74:27:c3:10:db:35:10:25:1c:8e:4b:
                    81:9b:fb:42:04:7c:6f:3d:e2:38:6c:0e:e4:2e:8e:
                    2a:18:6d:30:cd:67:2a:23:6b:37:cf:05:9f:cc:b7:
                    59:58:7f:ba:c4:0a:3f:8c:a4:ad:cb:98:9c:c0:f2:
                    8f:69:67:0f:c1:4e:33:cf:fc:85:5e:bb:5e:cf:93:
                    b0:cf:d9:f4:52:79:87:b1:f8:4d:15:68:65:d5:b7:
                    19:08:63:7f:5e:b1:34:ad:05:8f:5a:f0:e4:e1:8f:
                    25:f2:5c:5c:61:95:b0:56:2d:31:2b:08:65:79:e5:
                    b1:3b:9d:3e:b9:52:4b:ac:5d:c4:58:66:85:8d:81:
                    b3:04:28:f4:3f:2f:ac:92:01:62:d5:fd:8e:0b:da:
                    02:0c:7a:c7:6e:09:1c:ac:1c:b2:4c:d7:54:b8:26:
                    33:b2:5f:14:f3:b1:f9:3d:62:4d:40:99:6b:b6:e7:
                    89:58:97:d6:d4:4d:ea:4b:68:52:f3:3c:a8:b1:35:
                    88:db
                Exponent: 65537 (0x10001)
        X509v3 extensions:
            X509v3 Subject Key Identifier: 
                A1:DF:33:C3:CF:3E:53:41:A7:68:44:CC:AA:19:E1:84:C9:0D:BC:C6
            X509v3 Authority Key Identifier: 
                keyid:B4:11:33:F1:D7:E2:5E:F7:53:9E:20:22:10:4F:86:06:BF:1F:C9:5E
                DirName:/C=AU/O=Dodgy Brothers/CN=Dodgy CA
                serial:26:4C:9F:2D:64:71:C5:7F:87:47:A5:3E:B2:32:B3:4B:6D:09:86:BD
            X509v3 Basic Constraints: critical
                CA:TRUE, pathlen:1
            X509v3 Key Usage: 
                Certificate Sign, CRL Sign
            X509v3 Issuer Alternative Name: 
                <EMPTY>

    Signature Algorithm: sha1WithRSAEncryption
    Signature Value:
        8b:bf:a2:8c:d0:f9:c6:71:24:a9:75:6e:3f:c0:44:cd:09:e1:
        71:b2:e0:70:66:f2:70:17:a6:0f:cc:38:fc:09:31:a3:df:0d:
        9b:90:d8:01:40:ad:51:c6:98:60:87:b3:3c:7f:9c:bd:36:88:
        0b:ca:a0:50:64:c8:e0:dd:4d:7a:93:4c:04:9d:10:ef:44:69:
        4d:b8:47:58:45:81:bf:38:f7:9a:67:06:af:64:de:d6:31:f2:
        0f:56:b5:32:13:e5:b3:10:a0:50:8d:a6:8c:f7:10:9b:d5:aa:
        f8:ca:c4:1f:59:dc:64:cb:61:e1:ae:fa:91:bf:f6:5d:3c:7a:
        19:19:b3:a9:87:8b:8f:28:97:48:dd:41:b2:6a:73:11:47:87:
        ad:0e:89:d2:ec:e3:1c:23:38:8c:72:8f:c7:c3:fd:95:e0:0b:
        59:8d:19:af:52:28:39:f6:c1:3e:20:ed:28:bf:34:cc:b1:ef:
        d1:6d:3b:65:08:19:89:cd:82:77:8d:49:18:99:c5:4f:0d:2b:
        ff:5c:d1:38:e4:e6:b6:72:f2:4f:b3:64:f0:6c:5b:68:d0:22:
        10:be:0d:a2:8d:67:9c:40:51:f6:f9:22:a5:d5:d8:54:63:cf:
        41:6c:4b:85:f4:4a:15:58:bd:11:4c:17:d3:1b:11:41:c2:b5:
        3c:60:54:58
-----BEGIN CERTIFICATE-----
MIID4zCCAsugAwIBAgIUMNuka5CY+cbDLRQvtfbUuIjguL8wDQYJKoZIhvcNAQEF
BQAwOTELMAkGA1UEBhMCQVUxFzAVBgNVBAoMDkRvZGd5IEJyb3RoZXJzMREwDwYD
VQQDDAhEb2RneSBDQTAeFw0yNDAzMTgxNTUyMjJaFw0yNTAzMTgxNTUyMjJaMFcx
CzAJBgNVBAYTAkFVMRcwFQYDVQQKDA5Eb2RneSBCcm90aGVyczESMBAGA1UEAwwJ
QnJvdGhlciAxMRswGQYDVQQDDBJsYXN0dXBkYXRlX3V0Y3RpbWUwggEiMA0GCSqG
SIb3DQEBAQUAA4IBDwAwggEKAoIBAQC+lYb6cUxq6lGYUEuZoSxmFfNg8+H/afvO
SAEd/uEsOLDjvY9LSKd+OsZz46u/4dpulvX+w+S0qK28VjTUliV0J8MQ2zUQJRyO
S4Gb+0IEfG894jhsDuQujioYbTDNZyojazfPBZ/Mt1lYf7rECj+MpK3LmJzA8o9p
Zw/BTjPP/IVeu17Pk7DP2fRSeYex+E0VaGXVtxkIY39esTStBY9a8OThjyXyXFxh
lbBWLTErCGV55bE7nT65UkusXcRYZoWNgbMEKPQ/L6ySAWLV/Y4L2gIMesduCRys
HLJM11S4JjOyXxTzsfk9Yk1AmWu254lYl9bUTepLaFLzPKixNYjbAgMBAAGjgcQw
gcEwHQYDVR0OBBYEFKHfM8PPPlNBp2hEzKoZ4YTJDbzGMHQGA1UdIwRtMGuAFLQR
M/HX4l73U54gIhBPhga/H8leoT2kOzA5MQswCQYDVQQGEwJBVTEXMBUGA1UECgwO
RG9kZ3kgQnJvdGhlcnMxETAPBgNVBAMMCERvZGd5IENBghQmTJ8tZHHFf4dHpT6y
MrNLbQmGvTASBgNVHRMBAf8ECDAGAQH/AgEBMAsGA1UdDwQEAwIBBjAJBgNVHRIE
AjAAMA0GCSqGSIb3DQEBBQUAA4IBAQCLv6KM0PnGcSSpdW4/wETNCeFxsuBwZvJw
F6YPzDj8CTGj3w2bkNgBQK1Rxphgh7M8f5y9NogLyqBQZMjg3U16k0wEnRDvRGlN
uEdYRYG/OPeaZwavZN7WMfIPVrUyE+WzEKBQjaaM9xCb1ar4ysQfWdxky2HhrvqR
v/ZdPHoZGbOph4uPKJdI3UGyanMRR4etDonS7OMcIziMco/Hw/2V4AtZjRmvUig5
9sE+IO0ovzTMse/RbTtlCBmJzYJ3jUkYmcVPDSv/XNE45Oa2cvJPs2TwbFto0CIQ
vg2ijWecQFH2+SKl1dhUY89BbEuF9EoVWL0RTBfTGxFBwrU8YFRY
-----END CERTIFICATE-----
