Certificate:
    Data:
        Version: 3 (0x2)
        Serial Number:
            30:db:a4:6b:90:98:f9:c6:c3:2d:14:2f:b5:f6:d4:b8:88:e0:b8:c0
        Signature Algorithm: sha1WithRSAEncryption
        Issuer: C=AU, O=Dodgy Brothers, CN=Dodgy CA
        Validity
            Not Before: Mar 18 15:52:23 2024 GMT
            Not After : Mar 18 15:52:23 2025 GMT
        Subject: C=AU, O=Dodgy Brothers, CN=Brother 1, CN=lastupdate_generalizedtime
        Subject Public Key Info:
            Public Key Algorithm: rsaEncryption
                Public-Key: (2048 bit)
                Modulus:
                    00:be:95:86:fa:71:4c:6a:ea:51:98:50:4b:99:a1:
                    2c:66:15:f3:60:f3:e1:ff:69:fb:ce:48:01:1d:fe:
                    e1:2c:38:b0:e3:bd:8f:4b:48:a7:7e:3a:c6:73:e3:
                    ab:bf:e1:da:6e:96:f5:fe:c3:e4:b4:a8:ad:bc:56:
                    34:d4:96:25:74:27:c3:10:db:35:10:25:1c:8e:4b:
                    81:9b:fb:42:04:7c:6f:3d:e2:38:6c:0e:e4:2e:8e:
                    2a:18:6d:30:cd:67:2a:23:6b:37:cf:05:9f:cc:b7:
                    59:58:7f:ba:c4:0a:3f:8c:a4:ad:cb:98:9c:c0:f2:
                    8f:69:67:0f:c1:4e:33:cf:fc:85:5e:bb:5e:cf:93:
                    b0:cf:d9:f4:52:79:87:b1:f8:4d:15:68:65:d5:b7:
                    19:08:63:7f:5e:b1:34:ad:05:8f:5a:f0:e4:e1:8f:
                    25:f2:5c:5c:61:95:b0:56:2d:31:2b:08:65:79:e5:
                    b1:3b:9d:3e:b9:52:4b:ac:5d:c4:58:66:85:8d:81:
                    b3:04:28:f4:3f:2f:ac:92:01:62:d5:fd:8e:0b:da:
                    02:0c:7a:c7:6e:09:1c:ac:1c:b2:4c:d7:54:b8:26:
                    33:b2:5f:14:f3:b1:f9:3d:62:4d:40:99:6b:b6:e7:
                    89:58:97:d6:d4:4d:ea:4b:68:52:f3:3c:a8:b1:35:
                    88:db
                Exponent: 65537 (0x10001)
        X509v3 extensions:
            X509v3 Subject Key Identifier: 
                A1:DF:33:C3:CF:3E:53:41:A7:68:44:CC:AA:19:E1:84:C9:0D:BC:C6
            X509v3 Authority Key Identifier: 
                keyid:B4:11:33:F1:D7:E2:5E:F7:53:9E:20:22:10:4F:86:06:BF:1F:C9:5E
                DirName:/C=AU/O=Dodgy Brothers/CN=Dodgy CA
                serial:26:4C:9F:2D:64:71:C5:7F:87:47:A5:3E:B2:32:B3:4B:6D:09:86:BD
            X509v3 Basic Constraints: critical
                CA:TRUE, pathlen:1
            X509v3 Key Usage: 
                Certificate Sign, CRL Sign
            X509v3 Issuer Alternative Name: 
                <EMPTY>

    Signature Algorithm: sha1WithRSAEncryption
    Signature Value:
        27:41:dd:61:ad:78:53:e4:a3:24:ba:11:94:46:f9:04:78:75:
        d5:d7:c0:92:2b:fe:a1:60:30:84:81:de:cc:2b:05:e1:45:42:
        96:bc:89:08:2a:de:02:0d:b1:94:74:44:3d:cb:2a:7b:f5:ab:
        78:a5:58:e8:08:1e:8f:25:24:5d:3c:77:4f:00:cf:8c:80:72:
        37:88:04:d6:f3:31:12:29:4b:0a:ab:ea:e5:df:dc:2d:0d:b4:
        ca:98:27:66:0c:43:79:c3:37:a8:86:d6:ba:07:47:41:8a:63:
        db:38:c6:38:cc:1b:03:d4:51:e7:7f:d4:96:54:d1:3d:5b:f4:
        0a:1d:ff:8a:b6:4b:5c:e5:5f:c6:35:93:2c:9b:af:62:bf:92:
        6c:55:83:f5:5f:ae:f8:c6:0b:72:17:66:2d:78:25:c4:e1:73:
        99:e7:f7:98:c8:8a:e7:ad:36:5d:da:21:ee:1b:04:93:dd:3a:
        42:55:e0:6e:0e:a4:c2:fe:1a:51:a5:a5:81:53:3c:4f:9e:6e:
        71:8f:6d:1b:2a:c7:4b:05:a1:79:c7:f6:b1:4d:2e:81:37:85:
        80:ca:2d:15:3f:71:28:42:9a:e3:ee:fe:8f:ed:34:45:ee:4b:
        c1:9d:4e:21:47:aa:6c:8f:64:5d:95:b9:4f:86:f1:a5:a4:7c:
        08:5e:64:e0
-----BEGIN CERTIFICATE-----
MIID6zCCAtOgAwIBAgIUMNuka5CY+cbDLRQvtfbUuIjguMAwDQYJKoZIhvcNAQEF
BQAwOTELMAkGA1UEBhMCQVUxFzAVBgNVBAoMDkRvZGd5IEJyb3RoZXJzMREwDwYD
VQQDDAhEb2RneSBDQTAeFw0yNDAzMTgxNTUyMjNaFw0yNTAzMTgxNTUyMjNaMF8x
CzAJBgNVBAYTAkFVMRcwFQYDVQQKDA5Eb2RneSBCcm90aGVyczESMBAGA1UEAwwJ
QnJvdGhlciAxMSMwIQYDVQQDDBpsYXN0dXBkYXRlX2dlbmVyYWxpemVkdGltZTCC
ASIwDQYJKoZIhvcNAQEBBQADggEPADCCAQoCggEBAL6VhvpxTGrqUZhQS5mhLGYV
82Dz4f9p+85IAR3+4Sw4sOO9j0tIp346xnPjq7/h2m6W9f7D5LSorbxWNNSWJXQn
wxDbNRAlHI5LgZv7QgR8bz3iOGwO5C6OKhhtMM1nKiNrN88Fn8y3WVh/usQKP4yk
rcuYnMDyj2lnD8FOM8/8hV67Xs+TsM/Z9FJ5h7H4TRVoZdW3GQhjf16xNK0Fj1rw
5OGPJfJcXGGVsFYtMSsIZXnlsTudPrlSS6xdxFhmhY2BswQo9D8vrJIBYtX9jgva
Agx6x24JHKwcskzXVLgmM7JfFPOx+T1iTUCZa7bniViX1tRN6ktoUvM8qLE1iNsC
AwEAAaOBxDCBwTAdBgNVHQ4EFgQUod8zw88+U0GnaETMqhnhhMkNvMYwdAYDVR0j
BG0wa4AUtBEz8dfiXvdTniAiEE+GBr8fyV6hPaQ7MDkxCzAJBgNVBAYTAkFVMRcw
FQYDVQQKDA5Eb2RneSBCcm90aGVyczERMA8GA1UEAwwIRG9kZ3kgQ0GCFCZMny1k
ccV/h0elPrIys0ttCYa9MBIGA1UdEwEB/wQIMAYBAf8CAQEwCwYDVR0PBAQDAgEG
MAkGA1UdEgQCMAAwDQYJKoZIhvcNAQEFBQADggEBACdB3WGteFPkoyS6EZRG+QR4
ddXXwJIr/qFgMISB3swrBeFFQpa8iQgq3gINsZR0RD3LKnv1q3ilWOgIHo8lJF08
d08Az4yAcjeIBNbzMRIpSwqr6uXf3C0NtMqYJ2YMQ3nDN6iG1roHR0GKY9s4xjjM
GwPUUed/1JZU0T1b9Aod/4q2S1zlX8Y1kyybr2K/kmxVg/VfrvjGC3IXZi14JcTh
c5nn95jIiuetNl3aIe4bBJPdOkJV4G4OpML+GlGlpYFTPE+ebnGPbRsqx0sFoXnH
9rFNLoE3hYDKLRU/cShCmuPu/o/tNEXuS8GdTiFHqmyPZF2VuU+G8aWkfAheZOA=
-----END CERTIFICATE-----
