Certificate:
    Data:
        Version: 3 (0x2)
        Serial Number:
            30:db:a4:6b:90:98:f9:c6:c3:2d:14:2f:b5:f6:d4:b8:88:e0:b8:c3
        Signature Algorithm: sha1WithRSAEncryption
        Issuer: C=AU, O=Dodgy Brothers, CN=Dodgy CA
        Validity
            Not Before: Mar 18 15:52:23 2024 GMT
            Not After : Mar 18 15:52:23 2025 GMT
        Subject: C=AU, O=Dodgy Brothers, CN=Brother 1, CN=nextupdate_generalizedtime
        Subject Public Key Info:
            Public Key Algorithm: rsaEncryption
                Public-Key: (2048 bit)
                Modulus:
                    00:be:95:86:fa:71:4c:6a:ea:51:98:50:4b:99:a1:
                    2c:66:15:f3:60:f3:e1:ff:69:fb:ce:48:01:1d:fe:
                    e1:2c:38:b0:e3:bd:8f:4b:48:a7:7e:3a:c6:73:e3:
                    ab:bf:e1:da:6e:96:f5:fe:c3:e4:b4:a8:ad:bc:56:
                    34:d4:96:25:74:27:c3:10:db:35:10:25:1c:8e:4b:
                    81:9b:fb:42:04:7c:6f:3d:e2:38:6c:0e:e4:2e:8e:
                    2a:18:6d:30:cd:67:2a:23:6b:37:cf:05:9f:cc:b7:
                    59:58:7f:ba:c4:0a:3f:8c:a4:ad:cb:98:9c:c0:f2:
                    8f:69:67:0f:c1:4e:33:cf:fc:85:5e:bb:5e:cf:93:
                    b0:cf:d9:f4:52:79:87:b1:f8:4d:15:68:65:d5:b7:
                    19:08:63:7f:5e:b1:34:ad:05:8f:5a:f0:e4:e1:8f:
                    25:f2:5c:5c:61:95:b0:56:2d:31:2b:08:65:79:e5:
                    b1:3b:9d:3e:b9:52:4b:ac:5d:c4:58:66:85:8d:81:
                    b3:04:28:f4:3f:2f:ac:92:01:62:d5:fd:8e:0b:da:
                    02:0c:7a:c7:6e:09:1c:ac:1c:b2:4c:d7:54:b8:26:
                    33:b2:5f:14:f3:b1:f9:3d:62:4d:40:99:6b:b6:e7:
                    89:58:97:d6:d4:4d:ea:4b:68:52:f3:3c:a8:b1:35:
                    88:db
                Exponent: 65537 (0x10001)
        X509v3 extensions:
            X509v3 Subject Key Identifier: 
                A1:DF:33:C3:CF:3E:53:41:A7:68:44:CC:AA:19:E1:84:C9:0D:BC:C6
            X509v3 Authority Key Identifier: 
                keyid:B4:11:33:F1:D7:E2:5E:F7:53:9E:20:22:10:4F:86:06:BF:1F:C9:5E
                DirName:/C=AU/O=Dodgy Brothers/CN=Dodgy CA
                serial:26:4C:9F:2D:64:71:C5:7F:87:47:A5:3E:B2:32:B3:4B:6D:09:86:BD
            X509v3 Basic Constraints: critical
                CA:TRUE, pathlen:1
            X509v3 Key Usage: 
                Certificate Sign, CRL Sign
            X509v3 Issuer Alternative Name: 
                <EMPTY>

    Signature Algorithm: sha1WithRSAEncryption
    Signature Value:
        44:db:c5:3e:11:10:44:ee:9c:19:bc:06:82:df:42:9b:6f:8b:
        6f:34:5e:81:62:fe:34:64:42:be:d6:75:f1:80:e9:63:dc:ab:
        a2:83:cb:08:7e:00:bf:75:47:ee:45:a8:a3:7e:9d:c2:2d:f8:
        65:16:e9:5a:57:fd:ff:92:95:1d:05:7e:8d:c8:d0:09:6c:d4:
        58:a2:30:ca:36:57:e5:db:b3:e1:db:b7:fc:91:4e:f5:9b:9f:
        12:42:92:38:d7:7c:4e:52:3c:20:bd:ab:b0:b3:7f:39:e9:44:
        b4:85:d9:d5:08:45:d1:2c:a2:f8:d1:18:e3:9e:8c:a3:b1:bb:
        71:1c:d7:f1:3b:9d:cd:90:55:73:d7:0e:92:f4:29:70:a5:b8:
        36:64:df:18:68:cd:79:42:e9:75:ba:86:9c:4e:ee:be:05:8d:
        81:43:fe:96:f5:05:c0:d9:7c:2a:73:c6:6a:ee:23:51:0b:ec:
        21:2d:91:24:28:6a:40:54:b1:0f:37:cd:38:c8:aa:e1:07:a7:
        33:c3:84:c5:1c:30:97:30:be:3f:c2:8b:0a:86:0a:1b:e7:66:
        51:7f:ab:91:4a:d4:77:7f:ec:f5:bf:e2:49:de:e7:30:e9:53:
        b0:e7:b1:87:b1:bc:57:73:f0:9d:19:56:34:a5:c4:cd:da:b3:
        fb:b1:18:2f
-----BEGIN CERTIFICATE-----
MIID6zCCAtOgAwIBAgIUMNuka5CY+cbDLRQvtfbUuIjguMMwDQYJKoZIhvcNAQEF
BQAwOTELMAkGA1UEBhMCQVUxFzAVBgNVBAoMDkRvZGd5IEJyb3RoZXJzMREwDwYD
VQQDDAhEb2RneSBDQTAeFw0yNDAzMTgxNTUyMjNaFw0yNTAzMTgxNTUyMjNaMF8x
CzAJBgNVBAYTAkFVMRcwFQYDVQQKDA5Eb2RneSBCcm90aGVyczESMBAGA1UEAwwJ
QnJvdGhlciAxMSMwIQYDVQQDDBpuZXh0dXBkYXRlX2dlbmVyYWxpemVkdGltZTCC
ASIwDQYJKoZIhvcNAQEBBQADggEPADCCAQoCggEBAL6VhvpxTGrqUZhQS5mhLGYV
82Dz4f9p+85IAR3+4Sw4sOO9j0tIp346xnPjq7/h2m6W9f7D5LSorbxWNNSWJXQn
wxDbNRAlHI5LgZv7QgR8bz3iOGwO5C6OKhhtMM1nKiNrN88Fn8y3WVh/usQKP4yk
rcuYnMDyj2lnD8FOM8/8hV67Xs+TsM/Z9FJ5h7H4TRVoZdW3GQhjf16xNK0Fj1rw
5OGPJfJcXGGVsFYtMSsIZXnlsTudPrlSS6xdxFhmhY2BswQo9D8vrJIBYtX9jgva
Agx6x24JHKwcskzXVLgmM7JfFPOx+T1iTUCZa7bniViX1tRN6ktoUvM8qLE1iNsC
AwEAAaOBxDCBwTAdBgNVHQ4EFgQUod8zw88+U0GnaETMqhnhhMkNvMYwdAYDVR0j
BG0wa4AUtBEz8dfiXvdTniAiEE+GBr8fyV6hPaQ7MDkxCzAJBgNVBAYTAkFVMRcw
FQYDVQQKDA5Eb2RneSBCcm90aGVyczERMA8GA1UEAwwIRG9kZ3kgQ0GCFCZMny1k
ccV/h0elPrIys0ttCYa9MBIGA1UdEwEB/wQIMAYBAf8CAQEwCwYDVR0PBAQDAgEG
MAkGA1UdEgQCMAAwDQYJKoZIhvcNAQEFBQADggEBAETbxT4REETunBm8BoLfQptv
i280XoFi/jRkQr7WdfGA6WPcq6KDywh+AL91R+5FqKN+ncIt+GUW6VpX/f+SlR0F
fo3I0Als1FiiMMo2V+Xbs+Hbt/yRTvWbnxJCkjjXfE5SPCC9q7CzfznpRLSF2dUI
RdEsovjRGOOejKOxu3Ec1/E7nc2QVXPXDpL0KXCluDZk3xhozXlC6XW6hpxO7r4F
jYFD/pb1BcDZfCpzxmruI1EL7CEtkSQoakBUsQ83zTjIquEHpzPDhMUcMJcwvj/C
iwqGChvnZlF/q5FK1Hd/7PW/4kne5zDpU7DnsYexvFdz8J0ZVjSlxM3as/uxGC8=
-----END CERTIFICATE-----
