Certificate:
    Data:
        Version: 3 (0x2)
        Serial Number:
            30:db:a4:6b:90:98:f9:c6:c3:2d:14:2f:b5:f6:d4:b8:88:e0:b8:c1
        Signature Algorithm: sha1WithRSAEncryption
        Issuer: C=AU, O=Dodgy Brothers, CN=Dodgy CA
        Validity
            Not Before: Mar 18 15:52:23 2024 GMT
            Not After : Mar 18 15:52:23 2025 GMT
        Subject: C=AU, O=Dodgy Brothers, CN=Brother 1, CN=nextupdate_invalid
        Subject Public Key Info:
            Public Key Algorithm: rsaEncryption
                Public-Key: (2048 bit)
                Modulus:
                    00:be:95:86:fa:71:4c:6a:ea:51:98:50:4b:99:a1:
                    2c:66:15:f3:60:f3:e1:ff:69:fb:ce:48:01:1d:fe:
                    e1:2c:38:b0:e3:bd:8f:4b:48:a7:7e:3a:c6:73:e3:
                    ab:bf:e1:da:6e:96:f5:fe:c3:e4:b4:a8:ad:bc:56:
                    34:d4:96:25:74:27:c3:10:db:35:10:25:1c:8e:4b:
                    81:9b:fb:42:04:7c:6f:3d:e2:38:6c:0e:e4:2e:8e:
                    2a:18:6d:30:cd:67:2a:23:6b:37:cf:05:9f:cc:b7:
                    59:58:7f:ba:c4:0a:3f:8c:a4:ad:cb:98:9c:c0:f2:
                    8f:69:67:0f:c1:4e:33:cf:fc:85:5e:bb:5e:cf:93:
                    b0:cf:d9:f4:52:79:87:b1:f8:4d:15:68:65:d5:b7:
                    19:08:63:7f:5e:b1:34:ad:05:8f:5a:f0:e4:e1:8f:
                    25:f2:5c:5c:61:95:b0:56:2d:31:2b:08:65:79:e5:
                    b1:3b:9d:3e:b9:52:4b:ac:5d:c4:58:66:85:8d:81:
                    b3:04:28:f4:3f:2f:ac:92:01:62:d5:fd:8e:0b:da:
                    02:0c:7a:c7:6e:09:1c:ac:1c:b2:4c:d7:54:b8:26:
                    33:b2:5f:14:f3:b1:f9:3d:62:4d:40:99:6b:b6:e7:
                    89:58:97:d6:d4:4d:ea:4b:68:52:f3:3c:a8:b1:35:
                    88:db
                Exponent: 65537 (0x10001)
        X509v3 extensions:
            X509v3 Subject Key Identifier: 
                A1:DF:33:C3:CF:3E:53:41:A7:68:44:CC:AA:19:E1:84:C9:0D:BC:C6
            X509v3 Authority Key Identifier: 
                keyid:B4:11:33:F1:D7:E2:5E:F7:53:9E:20:22:10:4F:86:06:BF:1F:C9:5E
                DirName:/C=AU/O=Dodgy Brothers/CN=Dodgy CA
                serial:26:4C:9F:2D:64:71:C5:7F:87:47:A5:3E:B2:32:B3:4B:6D:09:86:BD
            X509v3 Basic Constraints: critical
                CA:TRUE, pathlen:1
            X509v3 Key Usage: 
                Certificate Sign, CRL Sign
            X509v3 Issuer Alternative Name: 
                <EMPTY>

    Signature Algorithm: sha1WithRSAEncryption
    Signature Value:
        05:d0:c1:0a:29:d7:92:80:13:f3:16:52:fc:20:5c:8b:40:23:
        3a:c6:6f:01:44:08:a7:32:8e:db:65:28:56:79:70:08:50:aa:
        8b:66:dd:88:90:23:1a:23:b6:c5:d1:dd:e3:f3:f2:70:f1:ad:
        cb:4c:d2:a1:56:24:77:ce:41:27:23:98:72:28:30:3f:05:fe:
        0e:c3:d7:52:5c:af:56:1f:42:1e:0e:5d:cb:c5:7e:1e:f6:38:
        12:fd:87:b8:43:90:a4:f5:8c:98:b8:e0:75:90:ae:c6:6a:52:
        67:62:53:c5:b8:64:37:da:82:fe:0e:85:ab:05:1e:20:dc:1b:
        50:05:b1:84:25:c3:f7:c7:af:66:be:f9:cb:db:5d:c8:67:c8:
        34:56:e2:1a:2a:55:43:53:1b:50:60:43:52:90:ff:30:87:ac:
        b7:b6:a6:db:85:3c:ba:f7:f3:a8:22:1f:7c:7d:ad:f3:83:93:
        a7:77:58:e8:76:d2:d3:88:b9:e6:8f:da:c4:69:8c:40:db:6f:
        c9:39:8d:86:ee:81:cb:e3:b6:0d:b2:c7:b9:43:a9:59:be:df:
        90:58:6a:11:bd:91:d8:f9:a3:fb:ee:0b:9c:be:1b:8e:68:1a:
        19:7a:99:c9:15:40:c3:7e:04:c7:77:a3:f6:3a:c8:2f:38:96:
        8d:ac:9c:0f
-----BEGIN CERTIFICATE-----
MIID4zCCAsugAwIBAgIUMNuka5CY+cbDLRQvtfbUuIjguMEwDQYJKoZIhvcNAQEF
BQAwOTELMAkGA1UEBhMCQVUxFzAVBgNVBAoMDkRvZGd5IEJyb3RoZXJzMREwDwYD
VQQDDAhEb2RneSBDQTAeFw0yNDAzMTgxNTUyMjNaFw0yNTAzMTgxNTUyMjNaMFcx
CzAJBgNVBAYTAkFVMRcwFQYDVQQKDA5Eb2RneSBCcm90aGVyczESMBAGA1UEAwwJ
QnJvdGhlciAxMRswGQYDVQQDDBJuZXh0dXBkYXRlX2ludmFsaWQwggEiMA0GCSqG
SIb3DQEBAQUAA4IBDwAwggEKAoIBAQC+lYb6cUxq6lGYUEuZoSxmFfNg8+H/afvO
SAEd/uEsOLDjvY9LSKd+OsZz46u/4dpulvX+w+S0qK28VjTUliV0J8MQ2zUQJRyO
S4Gb+0IEfG894jhsDuQujioYbTDNZyojazfPBZ/Mt1lYf7rECj+MpK3LmJzA8o9p
Zw/BTjPP/IVeu17Pk7DP2fRSeYex+E0VaGXVtxkIY39esTStBY9a8OThjyXyXFxh
lbBWLTErCGV55bE7nT65UkusXcRYZoWNgbMEKPQ/L6ySAWLV/Y4L2gIMesduCRys
HLJM11S4JjOyXxTzsfk9Yk1AmWu254lYl9bUTepLaFLzPKixNYjbAgMBAAGjgcQw
gcEwHQYDVR0OBBYEFKHfM8PPPlNBp2hEzKoZ4YTJDbzGMHQGA1UdIwRtMGuAFLQR
M/HX4l73U54gIhBPhga/H8leoT2kOzA5MQswCQYDVQQGEwJBVTEXMBUGA1UECgwO
RG9kZ3kgQnJvdGhlcnMxETAPBgNVBAMMCERvZGd5IENBghQmTJ8tZHHFf4dHpT6y
MrNLbQmGvTASBgNVHRMBAf8ECDAGAQH/AgEBMAsGA1UdDwQEAwIBBjAJBgNVHRIE
AjAAMA0GCSqGSIb3DQEBBQUAA4IBAQAF0MEKKdeSgBPzFlL8IFyLQCM6xm8BRAin
Mo7bZShWeXAIUKqLZt2IkCMaI7bF0d3j8/Jw8a3LTNKhViR3zkEnI5hyKDA/Bf4O
w9dSXK9WH0IeDl3LxX4e9jgS/Ye4Q5Ck9YyYuOB1kK7GalJnYlPFuGQ32oL+DoWr
BR4g3BtQBbGEJcP3x69mvvnL213IZ8g0VuIaKlVDUxtQYENSkP8wh6y3tqbbhTy6
9/OoIh98fa3zg5Ond1jodtLTiLnmj9rEaYxA22/JOY2G7oHL47YNsse5Q6lZvt+Q
WGoRvZHY+aP77gucvhuOaBoZepnJFUDDfgTHd6P2OsgvOJaNrJwP
-----END CERTIFICATE-----
