Certificate:
    Data:
        Version: 3 (0x2)
        Serial Number:
            30:db:a4:6b:90:98:f9:c6:c3:2d:14:2f:b5:f6:d4:b8:88:e0:b8:bd
        Signature Algorithm: sha1WithRSAEncryption
        Issuer: C=AU, O=Dodgy Brothers, CN=Dodgy CA
        Validity
            Not Before: Mar 18 15:52:22 2024 GMT
            Not After : Mar 18 15:52:22 2025 GMT
        Subject: C=AU, O=Dodgy Brothers, CN=Brother 1, CN=notimes
        Subject Public Key Info:
            Public Key Algorithm: rsaEncryption
                Public-Key: (2048 bit)
                Modulus:
                    00:be:95:86:fa:71:4c:6a:ea:51:98:50:4b:99:a1:
                    2c:66:15:f3:60:f3:e1:ff:69:fb:ce:48:01:1d:fe:
                    e1:2c:38:b0:e3:bd:8f:4b:48:a7:7e:3a:c6:73:e3:
                    ab:bf:e1:da:6e:96:f5:fe:c3:e4:b4:a8:ad:bc:56:
                    34:d4:96:25:74:27:c3:10:db:35:10:25:1c:8e:4b:
                    81:9b:fb:42:04:7c:6f:3d:e2:38:6c:0e:e4:2e:8e:
                    2a:18:6d:30:cd:67:2a:23:6b:37:cf:05:9f:cc:b7:
                    59:58:7f:ba:c4:0a:3f:8c:a4:ad:cb:98:9c:c0:f2:
                    8f:69:67:0f:c1:4e:33:cf:fc:85:5e:bb:5e:cf:93:
                    b0:cf:d9:f4:52:79:87:b1:f8:4d:15:68:65:d5:b7:
                    19:08:63:7f:5e:b1:34:ad:05:8f:5a:f0:e4:e1:8f:
                    25:f2:5c:5c:61:95:b0:56:2d:31:2b:08:65:79:e5:
                    b1:3b:9d:3e:b9:52:4b:ac:5d:c4:58:66:85:8d:81:
                    b3:04:28:f4:3f:2f:ac:92:01:62:d5:fd:8e:0b:da:
                    02:0c:7a:c7:6e:09:1c:ac:1c:b2:4c:d7:54:b8:26:
                    33:b2:5f:14:f3:b1:f9:3d:62:4d:40:99:6b:b6:e7:
                    89:58:97:d6:d4:4d:ea:4b:68:52:f3:3c:a8:b1:35:
                    88:db
                Exponent: 65537 (0x10001)
        X509v3 extensions:
            X509v3 Subject Key Identifier: 
                A1:DF:33:C3:CF:3E:53:41:A7:68:44:CC:AA:19:E1:84:C9:0D:BC:C6
            X509v3 Authority Key Identifier: 
                keyid:B4:11:33:F1:D7:E2:5E:F7:53:9E:20:22:10:4F:86:06:BF:1F:C9:5E
                DirName:/C=AU/O=Dodgy Brothers/CN=Dodgy CA
                serial:26:4C:9F:2D:64:71:C5:7F:87:47:A5:3E:B2:32:B3:4B:6D:09:86:BD
            X509v3 Basic Constraints: critical
                CA:TRUE, pathlen:1
            X509v3 Key Usage: 
                Certificate Sign, CRL Sign
            X509v3 Issuer Alternative Name: 
                <EMPTY>

    Signature Algorithm: sha1WithRSAEncryption
    Signature Value:
        6d:83:6c:69:69:93:61:e0:db:0f:9c:0d:13:12:c2:1e:65:88:
        10:9e:88:ca:9d:2c:0a:83:71:c1:79:16:ed:3c:69:57:d0:b4:
        78:75:dd:bd:15:68:e9:cf:7d:8c:62:68:4d:2d:49:27:4e:28:
        9c:12:c0:f2:97:f8:3d:7c:ef:a7:39:08:c6:0a:38:0c:ce:3d:
        cc:65:ff:fc:dc:c4:ff:7e:6c:84:6f:4e:77:ef:7b:5b:01:e2:
        ed:d6:5f:c7:75:e5:08:77:b0:80:72:24:c7:53:1e:34:8f:b2:
        4a:51:69:ea:28:f2:25:2c:7c:44:10:ca:cb:9a:41:59:8b:5f:
        1e:38:a1:bc:54:ca:0a:7c:a9:4a:40:82:bc:48:c3:7f:35:96:
        1e:03:40:bf:e8:34:8a:04:07:1e:f3:d5:0a:5f:00:46:74:c6:
        cc:bb:33:fa:6c:b6:5a:7f:f1:fb:e9:86:85:01:80:bd:a5:32:
        31:0d:2e:f2:33:9b:50:7e:66:6e:b7:a1:3d:c3:c0:d6:18:fb:
        25:8d:97:ab:50:a7:61:9d:d0:0e:e6:e1:7b:64:9c:fb:e0:95:
        dd:5a:75:eb:5c:cc:86:27:44:72:25:24:1b:fd:2a:48:8d:25:
        e2:a9:a3:54:97:68:fd:8c:56:e0:9c:b6:b6:08:6a:30:9c:0a:
        5e:ce:b5:1e
-----BEGIN CERTIFICATE-----
MIID2DCCAsCgAwIBAgIUMNuka5CY+cbDLRQvtfbUuIjguL0wDQYJKoZIhvcNAQEF
BQAwOTELMAkGA1UEBhMCQVUxFzAVBgNVBAoMDkRvZGd5IEJyb3RoZXJzMREwDwYD
VQQDDAhEb2RneSBDQTAeFw0yNDAzMTgxNTUyMjJaFw0yNTAzMTgxNTUyMjJaMEwx
CzAJBgNVBAYTAkFVMRcwFQYDVQQKDA5Eb2RneSBCcm90aGVyczESMBAGA1UEAwwJ
QnJvdGhlciAxMRAwDgYDVQQDDAdub3RpbWVzMIIBIjANBgkqhkiG9w0BAQEFAAOC
AQ8AMIIBCgKCAQEAvpWG+nFMaupRmFBLmaEsZhXzYPPh/2n7zkgBHf7hLDiw472P
S0infjrGc+Orv+Habpb1/sPktKitvFY01JYldCfDENs1ECUcjkuBm/tCBHxvPeI4
bA7kLo4qGG0wzWcqI2s3zwWfzLdZWH+6xAo/jKSty5icwPKPaWcPwU4zz/yFXrte
z5Owz9n0UnmHsfhNFWhl1bcZCGN/XrE0rQWPWvDk4Y8l8lxcYZWwVi0xKwhleeWx
O50+uVJLrF3EWGaFjYGzBCj0Py+skgFi1f2OC9oCDHrHbgkcrByyTNdUuCYzsl8U
87H5PWJNQJlrtueJWJfW1E3qS2hS8zyosTWI2wIDAQABo4HEMIHBMB0GA1UdDgQW
BBSh3zPDzz5TQadoRMyqGeGEyQ28xjB0BgNVHSMEbTBrgBS0ETPx1+Je91OeICIQ
T4YGvx/JXqE9pDswOTELMAkGA1UEBhMCQVUxFzAVBgNVBAoMDkRvZGd5IEJyb3Ro
ZXJzMREwDwYDVQQDDAhEb2RneSBDQYIUJkyfLWRxxX+HR6U+sjKzS20Jhr0wEgYD
VR0TAQH/BAgwBgEB/wIBATALBgNVHQ8EBAMCAQYwCQYDVR0SBAIwADANBgkqhkiG
9w0BAQUFAAOCAQEAbYNsaWmTYeDbD5wNExLCHmWIEJ6Iyp0sCoNxwXkW7TxpV9C0
eHXdvRVo6c99jGJoTS1JJ04onBLA8pf4PXzvpzkIxgo4DM49zGX//NzE/35shG9O
d+97WwHi7dZfx3XlCHewgHIkx1MeNI+ySlFp6ijyJSx8RBDKy5pBWYtfHjihvFTK
CnypSkCCvEjDfzWWHgNAv+g0igQHHvPVCl8ARnTGzLsz+my2Wn/x++mGhQGAvaUy
MQ0u8jObUH5mbrehPcPA1hj7JY2Xq1CnYZ3QDubhe2Sc++CV3Vp161zMhidEciUk
G/0qSI0l4qmjVJdo/YxW4Jy2tghqMJwKXs61Hg==
-----END CERTIFICATE-----
