Certificate:
    Data:
        Version: 3 (0x2)
        Serial Number:
            30:db:a4:6b:90:98:f9:c6:c3:2d:14:2f:b5:f6:d4:b8:88:e0:b8:bb
        Signature Algorithm: SM2-with-SM3
        Issuer: C=CN, ST=LN, L=Shenyang, O=Test Org, OU=Test OU, CN=Test SM2 CA
        Validity
            Not Before: Mar 18 15:52:22 2024 GMT
            Not After : Mar 18 15:52:22 2025 GMT
        Subject: C=CN, ST=Liaoning, L=Shenyang, O=Tet, OU=Tet, CN=oo/emailAddress=oo@oo.oo
        Subject Public Key Info:
            Public Key Algorithm: id-ecPublicKey
                Public-Key: (256 bit)
                pub:
                    04:d4:d8:dd:3a:99:5d:72:34:e4:b9:9a:5d:18:33:
                    72:1c:09:e1:2b:d7:01:d9:16:7b:8c:09:85:ce:de:
                    e3:80:4b:3d:38:74:a0:ad:bd:dc:ae:3c:fe:a8:66:
                    5f:ab:22:79:03:26:6e:95:0e:e0:74:04:73:6f:51:
                    f9:e6:3b:f0:e6
                ASN1 OID: SM2
        X509v3 extensions:
            X509v3 Subject Key Identifier: 
                F6:52:D4:54:D4:26:10:46:F6:AA:D3:B4:8C:E6:F7:5A:BC:B0:2A:B3
            X509v3 Authority Key Identifier: 
                keyid:C5:8D:C5:AE:FF:32:60:49:9E:52:29:49:54:E5:5C:78:FF:45:B9:74
                DirName:/C=CN/ST=LN/L=Shenyang/O=Test Org/OU=Test OU/CN=Test SM2 CA
                serial:E9:64:A4:3A:52:AE:65:5B
            X509v3 Basic Constraints: critical
                CA:TRUE, pathlen:1
            X509v3 Key Usage: 
                Certificate Sign, CRL Sign
            X509v3 Issuer Alternative Name: 
                <EMPTY>

    Signature Algorithm: SM2-with-SM3
    Signature Value:
        30:45:02:20:7e:48:f0:5b:be:88:e7:16:55:6a:8d:6d:84:98:
        4f:bb:17:6f:b8:08:f9:80:e2:b4:78:73:d1:8a:08:ff:b7:aa:
        02:21:00:f2:cf:1c:f6:93:ee:1c:f6:77:8b:64:8b:55:94:fc:
        59:a8:8f:d2:47:df:a4:17:8f:75:bd:10:28:15:11:ff:24
-----BEGIN CERTIFICATE-----
MIICyzCCAnGgAwIBAgIUMNuka5CY+cbDLRQvtfbUuIjguLswCgYIKoEcz1UBg3Uw
aDELMAkGA1UEBhMCQ04xCzAJBgNVBAgMAkxOMREwDwYDVQQHDAhTaGVueWFuZzER
MA8GA1UECgwIVGVzdCBPcmcxEDAOBgNVBAsMB1Rlc3QgT1UxFDASBgNVBAMMC1Rl
c3QgU00yIENBMB4XDTI0MDMxODE1NTIyMloXDTI1MDMxODE1NTIyMlowdTELMAkG
A1UEBhMCQ04xETAPBgNVBAgMCExpYW9uaW5nMREwDwYDVQQHDAhTaGVueWFuZzEM
MAoGA1UECgwDVGV0MQwwCgYDVQQLDANUZXQxCzAJBgNVBAMMAm9vMRcwFQYJKoZI
hvcNAQkBFghvb0Bvby5vbzBZMBMGByqGSM49AgEGCCqBHM9VAYItA0IABNTY3TqZ
XXI05LmaXRgzchwJ4SvXAdkWe4wJhc7e44BLPTh0oK293K48/qhmX6sieQMmbpUO
4HQEc29R+eY78OajgeswgegwHQYDVR0OBBYEFPZS1FTUJhBG9qrTtIzm91q8sCqz
MIGaBgNVHSMEgZIwgY+AFMWNxa7/MmBJnlIpSVTlXHj/Rbl0oWykajBoMQswCQYD
VQQGEwJDTjELMAkGA1UECAwCTE4xETAPBgNVBAcMCFNoZW55YW5nMREwDwYDVQQK
DAhUZXN0IE9yZzEQMA4GA1UECwwHVGVzdCBPVTEUMBIGA1UEAwwLVGVzdCBTTTIg
Q0GCCQDpZKQ6Uq5lWzASBgNVHRMBAf8ECDAGAQH/AgEBMAsGA1UdDwQEAwIBBjAJ
BgNVHRIEAjAAMAoGCCqBHM9VAYN1A0gAMEUCIH5I8Fu+iOcWVWqNbYSYT7sXb7gI
+YDitHhz0YoI/7eqAiEA8s8c9pPuHPZ3i2SLVZT8WaiP0kffpBePdb0QKBUR/yQ=
-----END CERTIFICATE-----
